(lp0
(S'AEROPARQUE'
p1
g1
tp2
a(S'BUENOS AIRES'
p3
g3
tp4
a(S'ARGERICH'
p5
g5
tp6
a(S'AZUL'
p7
g7
tp8
a(S'BAHIA BLANCA'
p9
g9
tp10
a(S'BALCARCE'
p11
g11
tp12
a(S'BARROW'
p13
g13
tp14
a(S'BOLIVAR'
p15
g15
tp16
a(S'BORDENAVE'
p17
g17
tp18
a(S'CASTELAR'
p19
g19
tp20
a(S'COMDTE. ESPORA'
p21
g21
tp22
a(S'CNEL. SUAREZ'
p23
g23
tp24
a(S'DOLORES'
p25
g25
tp26
a(S'EL PALOMAR'
p27
g27
tp28
a(S'EZEIZA'
p29
g29
tp30
a(S'HILARIO ASCASUBI'
p31
g31
tp32
a(S'ISLA MARTIN GARCIA'
p33
g33
tp34
a(S'JUNIN'
p35
g35
tp36
a(S'LA PLATA (AERO)'
p37
g37
tp38
a(S'LA PLATA OBS'
p39
g39
tp40
a(S'LAPRIDA'
p41
g41
tp42
a(S'LAS FLORES'
p43
g43
tp44
a(S'LOPEZ JUAREZ '
p45
g45
tp46
a(S'LOS HORNOS'
p47
g47
tp48
a(S'MAR DEL PLATA'
p49
g49
tp50
a(S'MAR DEL PLATA (AERO)'
p51
g51
tp52
a(S'MERCEDES'
p53
g53
tp54
a(S'MORON'
p55
g55
tp56
a(S'NECOCHEA '
p57
g57
tp58
a(S'NUEVE DE JULIO'
p59
g59
tp60
a(S'PQUE PEREYRA'
p61
g61
tp62
a(S'PEHUAJO'
p63
g63
tp64
a(S'PERGAMINO'
p65
g65
tp66
a(S'PIGUE'
p67
g67
tp68
a(S'PINAMAR'
p69
g69
tp70
a(S'PUNTA INDIO'
p71
g71
tp72
a(S'SAN CLEMENTE'
p73
g73
tp74
a(S'SAN MIGUEL'
p75
g75
tp76
a(S'SAN PEDRO'
p77
g77
tp78
a(S'SIERRA DE LA VENTANA'
p79
g79
tp80
a(S'TANDIL'
p81
g81
tp82
a(S'TRENQUE LAUQUEN'
p83
g83
tp84
a(S'TRES ARROYOS'
p85
g85
tp86
a(S'CATAMARCA'
p87
g87
tp88
a(S'CATMARCA (INTA)'
p89
g89
tp90
a(S'TINOGASTA '
p91
g91
tp92
a(S'BELL VILLE'
p93
g93
tp94
a(S'CORDOBA'
p95
g95
tp96
a(S'CORDOBA (AERO)'
p97
g97
tp98
a(S'DIQUE CRUZ DEL EJE'
p99
g99
tp100
a(S'DIQUE LA VINA'
p101
g101
tp102
a(S'DIQUE PISCOHUASI'
p103
g103
tp104
a(S'EMBALSE'
p105
g105
tp106
a(S'HUERTA GRANDE'
p107
g107
tp108
a(S'LABOULAYE'
p109
g109
tp110
a(S'MARCOS JUAREZ'
p111
g111
tp112
a(S'MIRAMAR'
p113
g113
tp114
a(S'PILAR'
p115
g115
tp116
a(S'RIO CUARTO'
p117
g117
tp118
a(S'VILLA DOLORES'
p119
g119
tp120
a(S'VILLA MARIA'
p121
g121
tp122
a(S'BELLA VISTA'
p123
g123
tp124
a(S'CORRIENTES'
p125
g125
tp126
a(S'CORRIENTES (AERO)'
p127
g127
tp128
a(S'GENERAL PAZ'
p129
g129
tp130
a(S'GOYA'
p131
g131
tp132
a(S'ITUZAINGO'
p133
g133
tp134
a(S'MONTE CASEROS'
p135
g135
tp136
a(S'PASO DE LOS LIBRES'
p137
g137
tp138
a(S'CABO RASO'
p139
g139
tp140
a(S'COMODORO RIVADAVIA'
p141
g141
tp142
a(S'ESQUEL'
p143
g143
tp144
a(S'GOBERNADOR COSTA'
p145
g145
tp146
a(S'TRELEW'
p147
g147
tp148
a(S'COLONIA BENITEZ'
p149
g149
tp150
a(S'COLONIA CASTELLI'
p151
g151
tp152
a(S'LAS BRENAS'
p153
g153
tp154
a(S'PRES. ROQUE.S.PENA'
p155
g155
tp156
a(S'RESISTENCIA'
p157
g157
tp158
a(S'RESISTENCIA (AEROCLUB)'
p159
g159
tp160
a(S'ROQUE SAENZ PENA'
p161
g161
tp162
a(S'VILLA ANGELA'
p163
g163
tp164
a(S'CONCORDIA'
p165
g165
tp166
a(S'GUALEGUAYCHU'
p167
g167
tp168
a(S'GUALEGUAYCHU (AERO)'
p169
g169
tp170
a(S'MAZARUCA'
p171
g171
tp172
a(S'PARANA '
p173
g173
tp174
a(S'PARANA (AERO)'
p175
g175
tp176
a(S'FORMOSA'
p177
g177
tp178
a(S'LAS LOMITAS'
p179
g179
tp180
a(S'SAN FRANCISCO'
p181
g181
tp182
a(S'TACA AGLE'
p183
g183
tp184
a(S'ALTO DEL COMEDERO'
p185
g185
tp186
a(S'HUMAHUACA'
p187
g187
tp188
a(S'JUJUY'
p189
g189
tp190
a(S'JUJUY EL CADILLAL'
p191
g191
tp192
a(S'LA QUIACA'
p193
g193
tp194
a(S'GENERAL PICO'
p195
g195
tp196
a(S'GUATRACHE'
p197
g197
tp198
a(S'MACACHIN'
p199
g199
tp200
a(S'PUELCHES'
p201
g201
tp202
a(S'QUEMUQUEMU'
p203
g203
tp204
a(S'SANTA ROSA'
p205
g205
tp206
a(S'CHAMICAL'
p207
g207
tp208
a(S'CHEPES'
p209
g209
tp210
a(S'CHILECITO'
p211
g211
tp212
a(S'LA RIOJA'
p213
g213
tp214
a(S'CERRO AZUL'
p215
g215
tp216
a(S'IGUAZU'
p217
g217
tp218
a(S'LORETO'
p219
g219
tp220
a(S'OBERA'
p221
g221
tp222
a(S'POSADAS'
p223
g223
tp224
a(S'BARDAS BLANCAS'
p225
g225
tp226
a(S'CHACRAS DE CORIA'
p227
g227
tp228
a(S'COLONIA ALVEAR'
p229
g229
tp230
a(S'CRISTO REDENTOR'
p231
g231
tp232
a(S'ING. DAGOBERTO SARDINA'
p233
g233
tp234
a(S'MALARGUE'
p235
g235
tp236
a(S'MENDOZA'
p237
g237
tp238
a(S'MENDOZA (AERO)'
p239
g239
tp240
a(S'PUENTE DEL INCA'
p241
g241
tp242
a(S'SAN CARLOS'
p243
g243
tp244
a(S'SAN MARTIN'
p245
g245
tp246
a(S'SAN RAFAEL'
p247
g247
tp248
a(S'CUTRALCO'
p249
g249
tp250
a(S'LAS LAJAS'
p251
g251
tp252
a(S'NEUQUEN '
p253
g253
tp254
a(S'ALTO VALLE'
p255
g255
tp256
a(S'BARILOCHE'
p257
g257
tp258
a(S'CATEDRAL 2000'
p259
g259
tp260
a(S'CHOELE CHOEL'
p261
g261
tp262
a(S'CIPOLLETTI'
p263
g263
tp264
a(S'EL BOLSON'
p265
g265
tp266
a(S'MAQUINCAHO'
p267
g267
tp268
a(S'RIO COLORADO'
p269
g269
tp270
a(S'SAN ANTONIO OESTE'
p271
g271
tp272
a(S'SIERRA COLORADA'
p273
g273
tp274
a(S'VILLA REGINA'
p275
g275
tp276
a(S'LAGO ARGENTINO'
p277
g277
tp278
a(S'PUERTO DESEADO'
p279
g279
tp280
a(S'RIO GALLEGO'
p281
g281
tp282
a(S'LA BANDA'
p283
g283
tp284
a(S'MONTE QUEMADO'
p285
g285
tp286
a(S'SANTIAGO DEL ESTERO'
p287
g287
tp288
a(S'ANGEL GALLARDO'
p289
g289
tp290
a(S'CERES'
p291
g291
tp292
a(S'ESPERANZA'
p293
g293
tp294
a(S'OLIVEROS'
p295
g295
tp296
a(S'EL BALDE'
p297
g297
tp298
a(S'JACHAL'
p299
g299
tp300
a(S'SAN JUAN'
p301
g301
tp302
a(S'SAN JUAN (AERO)'
p303
g303
tp304
a(S'VALLE FERTIL'
p305
g305
tp306
a(S'SAN LUIS'
p307
g307
tp308
a(S'UNION'
p309
g309
tp310
a(S'VILLA REYNOLDS'
p311
g311
tp312
a(S'ORAN'
p313
g313
tp314
a(S'SALTA'
p315
g315
tp316
a(S'TUCUMAN'
p317
g317
tp318
a(S'TUCUMAN (AERO)'
p319
g319
tp320
a(S'VILLA NOGUES'
p321
g321
tp322
a(S'BASE ESPERANZA'
p323
g323
tp324
a(S'ISLAS ORCADAS'
p325
g325
tp326
a(S'USHUAIA'
p327
g327
tp328
a.