(lp0
(F0.112
S'abedul perpendicular a las fibras k=0.112'
p1
tp2
a(F45.0
S'acero k=45.000'
p3
tp4
a(F49.871000000000002
S'acero de construcci\xc3\xb3n k=49.871'
p5
tp6
a(F12.468
S'acero inoxidable k=12.468'
p7
tp8
a(F0.070000000000000007
S'aglomerados de viruta y fibras de madera con cemento yeso k=0.070'
p9
tp10
a(F0.5
S'agua k=0.500'
p11
tp12
a(F0.02
S'aire a 0 \xc2\xb0C sin convenci\xc3\xb3n k=0.020'
p13
tp14
a(F0.021999999999999999
S'aire a 20 \xc2\xb0C sin convenci\xc3\xb3n k=0.022'
p15
tp16
a(F0.75
S'alba\xc3\xb1iler\xc3\xada de ladrillos al exterior k=0.750'
p17
tp18
a(F0.40999999999999998
S'alba\xc3\xb1iler\xc3\xada de ladrillos con 0% de humedad k=0.410'
p19
tp20
a(F0.59999999999999998
S'alba\xc3\xb1iler\xc3\xada de ladrillos con 0.9% de humedad k=0.600'
p21
tp22
a(F0.81999999999999995
S'alba\xc3\xb1iler\xc3\xada de ladrillos con 1.3% de humedad k=0.820'
p23
tp24
a(F0.12
S'alerce perpendicular a las fibras k=0.120'
p25
tp26
a(F175.40799999999999
S'aluminio k=175.408'
p27
tp28
a(F0.012999999999999999
S'amianto 1 k=0.013'
p29
tp30
a(F0.16700000000000001
S'amianto 2 k=0.167'
p31
tp32
a(F0.20100000000000001
S'amianto 3 k=0.201'
p33
tp34
a(F0.36099999999999999
S'arce paralelo a las fibras k=0.361'
p35
tp36
a(F0.13800000000000001
S'arce perpendicular a las fibras k=0.138'
p37
tp38
a(F0.318
S'arcilla k=0.318'
p39
tp40
a(F1.0660000000000001
S'arena de mar humedad 10% k=1.066'
p41
tp42
a(F1.5049999999999999
S'arena de mar humedad 20% k=1.505'
p43
tp44
a(F2.0979999999999999
S'arena de mar saturada k=2.098'
p45
tp46
a(F0.80000000000000004
S'arena de r\xc3\xado humedad 10% k=0.800'
p47
tp48
a(F1.1439999999999999
S'arena de r\xc3\xado humedad 20% k=1.144'
p49
tp50
a(F1.617
S'arena de r\xc3\xado saturada k=1.617'
p51
tp52
a(F0.26700000000000002
S'arena de r\xc3\xado seca k=0.267'
p53
tp54
a(F0.499
S'arena humedad 2% k=0.499'
p55
tp56
a(F1.0
S'arena h\xc3\xbamedad 7% k=1.000'
p57
tp58
a(F0.25800000000000001
S'arena seca k=0.258'
p59
tp60
a(F0.5
S'arena seca al aire k=0.500'
p61
tp62
a(F2.0
S'arena y arcilla k=2.000'
p63
tp64
a(F1.2
S'arena y canto rodado naturalmente h\xc3\xbamedos k=1.200'
p65
tp66
a(F1.1000000000000001
S'arenisca 1 k=1.100'
p67
tp68
a(F1.204
S'arenisca 2 k=1.204'
p69
tp70
a(F1.806
S'arenisca 3 k=1.806'
p71
tp72
a(F0.29999999999999999
S'asbesto celul\xc3\xb3sico 1 k=0.300'
p73
tp74
a(F0.40000000000000002
S'asbesto celul\xc3\xb3sico 2 k=0.400'
p75
tp76
a(F0.59999999999999998
S'asbesto celul\xc3\xb3sico 3 k=0.600'
p77
tp78
a(F0.55000000000000004
S'asbesto cemento normal 1 k=0.550'
p79
tp80
a(F0.80000000000000004
S'asbesto cemento normal 2 k=0.800'
p81
tp82
a(F1.1000000000000001
S'asbesto cemento normal 3 k=1.100'
p83
tp84
a(F0.059999999999999998
S'aserr\xc3\xadn, virutas, fibras con humedad normal k=0.060'
p85
tp86
a(F0.60199999999999998
S'asfalto (e m\xc3\xadn 7mm y membranas asf\xc3\xa1lticas) k=0.602'
p87
tp88
a(F0.90000000000000002
S'azulejo cer\xc3\xa1mico k=0.900'
p89
tp90
a(F0.75
S'baldosas cer\xc3\xa1micas k=0.750'
p91
tp92
a(F0.60199999999999998
S'baldosas cer\xc3\xa1micas k=0.602'
p93
tp94
a(F1.3
S'baldosas de cemento comprimido k=1.300'
p95
tp96
a(F0.069000000000000006
S'baldosas de corcho k=0.069'
p97
tp98
a(F0.98899999999999999
S'baldosas de hormig\xc3\xb3n k=0.989'
p99
tp100
a(F0.439
S'baldosas de pl\xc3\xa1stico k=0.439'
p101
tp102
a(F0.040000000000000001
S'balsa perpendicular a las fibras 1 k=0.040'
p103
tp104
a(F0.070000000000000007
S'balsa perpendicular a las fibras 2 k=0.070'
p105
tp106
a(F0.34999999999999998
S'barrera de vapor plastificado 0.1mm k=0.350'
p107
tp108
a(F0.34999999999999998
S'barrera de vapor plastificado 0.05mm k=0.350'
p109
tp110
a(F3.0
S'basalto k=3.000'
p111
tp112
a(F1.1180000000000001
S'basalto k=1.118'
p113
tp114
a(F0.14999999999999999
S'bitumen asf\xc3\xa1ltico 10mm k=0.150'
p115
tp116
a(F0.27500000000000002
S'bloques de suelo cemento macizos k=0.275'
p117
tp118
a(F0.10000000000000001
S'bloques o placas de hormig\xc3\xb3n de virutas de madera y aglomerantes 1 k=0.100'
p119
tp120
a(F0.12
S'bloques o placas de hormig\xc3\xb3n de virutas de madera y aglomerantes 2 k=0.120'
p121
tp122
a(F0.23999999999999999
S'bloques o placas de hormig\xc3\xb3n de virutas de madera y aglomerantes 3 k=0.240'
p123
tp124
a(F0.38
S'bloques o placas de hormig\xc3\xb3n de virutas de madera y aglomerantes 4 k=0.380'
p125
tp126
a(F0.47999999999999998
S'bloques o placas de hormig\xc3\xb3n de virutas de madera y aglomerantes 5 k=0.480'
p127
tp128
a(F0.12
S'bloques o placas de hormig\xc3\xb3n liviano k=0.120'
p129
tp130
a(F0.16
S'bloques o placas de hormig\xc3\xb3n liviano 1 k=0.160'
p131
tp132
a(F0.20000000000000001
S'bloques o placas de hormig\xc3\xb3n liviano 2 k=0.200'
p133
tp134
a(F0.25
S'bloques o placas de hormig\xc3\xb3n liviano 3 k=0.250'
p135
tp136
a(F0.29999999999999999
S'bloques o placas de hormig\xc3\xb3n liviano 4 k=0.300'
p137
tp138
a(F0.40000000000000002
S'bloques o placas de hormig\xc3\xb3n liviano 5 k=0.400'
p139
tp140
a(F0.5
S'bloques o placas de hormig\xc3\xb3n liviano 6 k=0.500'
p141
tp142
a(F0.59999999999999998
S'bloques o placas de hormig\xc3\xb3n liviano 7 k=0.600'
p143
tp144
a(F0.69999999999999996
S'bloques o placas de hormig\xc3\xb3n liviano 8 k=0.700'
p145
tp146
a(F0.80000000000000004
S'bloques o placas de hormig\xc3\xb3n liviano 9 k=0.800'
p147
tp148
a(F36.113
S'bronce k=36.113'
p149
tp150
a(F1.0
S'canto rodado seco al aire k=1.000'
p151
tp152
a(F0.027
S'caoba paralela a las fibras k=0.027'
p153
tp154
a(F0.129
S'caoba perpendicular a las fibras k=0.129'
p155
tp156
a(F0.34999999999999998
S'cascotes de ladrillos triturados secos al aire k=0.350'
p157
tp158
a(F0.095000000000000001
S'caucho 1 k=0.095'
p159
tp160
a(F0.112
S'caucho 2 k=0.112'
p161
tp162
a(F0.16300000000000001
S'caucho 3 k=0.163'
p163
tp164
a(F0.059999999999999998
S'cemento en polvo k=0.060'
p165
tp166
a(F0.80000000000000004
S'cemento fraguado k=0.800'
p167
tp168
a(F0.0
S'chapas met\xc3\xa1licas (ver metales) k=0.000'
p169
tp170
a(F0.0
S'cielorraso con mortero de cemento k=0.000'
p171
tp172
a(F0.0
S'cielorraso con mortero de yeso k=0.000'
p173
tp174
a(F95.0
S'cinc k=95.000'
p175
tp176
a(F330.18099999999998
S'cobre k=330.181'
p177
tp178
a(F0.027
S'corcho granulado (1 a 2 mm) k=0.027'
p179
tp180
a(F0.031
S'corcho granulado (3 a 5 mm) k=0.031'
p181
tp182
a(F0.037999999999999999
S'corcho granulado mezclado k=0.038'
p183
tp184
a(F5.1589999999999998
S'cuarcita k=5.159'
p185
tp186
a(F140.0
S'duraluminio k=140.000'
p187
tp188
a(F0.14000000000000001
S'ebonita k=0.140'
p189
tp190
a(F0.34399999999999997
S'enlucido de yeso 1 k=0.344'
p191
tp192
a(F0.42099999999999999
S'enlucido de yeso 2 k=0.421'
p193
tp194
a(F0.55000000000000004
S'enlucido de yeso 3 k=0.550'
p195
tp196
a(F0.20599999999999999
S'escorias porosas 1 k=0.206'
p197
tp198
a(F0.249
S'escorias porosas 2 k=0.249'
p199
tp200
a(F0.28399999999999997
S'escorias porosas 3 k=0.284'
p201
tp202
a(F0.35299999999999998
S'escorias porosas 4 k=0.353'
p203
tp204
a(F0.0
S'espuma de poliuretano flexible (poros abiertos) k=0.000'
p205
tp206
a(F0.0
S'espuma de poliuretano r\xc3\xadgido en planchas (poros cerrados) k=0.000'
p207
tp208
a(F0.040000000000000001
S'fibra de ca\xc3\xb1a afieltrada  k=0.040'
p209
tp210
a(F0.040000000000000001
S'fibra de ca\xc3\xb1a con\xc3\xadfera k=0.040'
p211
tp212
a(F0.80000000000000004
S'fibrocemento k=0.800'
p213
tp214
a(F0.14599999999999999
S'fieltro alquitranado k=0.146'
p215
tp216
a(F0.14599999999999999
S'fieltro asf\xc3\xa1ltico k=0.146'
p217
tp218
a(F0.14599999999999999
S'fieltro bituminado con hoja de aluminio k=0.146'
p219
tp220
a(F0.14599999999999999
S'fieltro saturado y revestido en rollos pesados para cubiertas k=0.146'
p221
tp222
a(F0.16
S'fieltros saturados con asfalto k=0.160'
p223
tp224
a(F0.25800000000000001
S'fresno paralelo a las fibras k=0.258'
p225
tp226
a(F0.14599999999999999
S'fresno perpendicular a las fibras k=0.146'
p227
tp228
a(F42.991999999999997
S'fundici\xc3\xb3n k=42.992'
p229
tp230
a(F2.4940000000000002
S'granito k=2.494'
p231
tp232
a(F2.7000000000000002
S'granito 1 k=2.700'
p233
tp234
a(F3.5
S'granito 2 k=3.500'
p235
tp236
a(F0.80000000000000004
S'grava k=0.800'
p237
tp238
a(F0.30099999999999999
S'haya paralelo a las fibras k=0.301'
p239
tp240
a(F0.18099999999999999
S'haya perpendicular a las fibras k=0.181'
p241
tp242
a(F1.8999999999999999
S'hielo 2 k=1.900'
p243
tp244
a(F62.0
S'hierro laminado k=62.000'
p245
tp246
a(F175.40799999999999
S'hoja de aluminio 25mm k=175.408'
p247
tp248
a(F175.40799999999999
S'hoja de aluminio 8mm k=175.408'
p249
tp250
a(F1.3
S'hormig\xc3\xb3n armado k=1.300'
p251
tp252
a(F0.13800000000000001
S'hormig\xc3\xb3n celular 1 k=0.138'
p253
tp254
a(F0.189
S'hormig\xc3\xb3n celular 2 k=0.189'
p255
tp256
a(F0.25800000000000001
S'hormig\xc3\xb3n celular 3 k=0.258'
p257
tp258
a(F0.34399999999999997
S'hormig\xc3\xb3n celular 4 k=0.344'
p259
tp260
a(F0.42999999999999999
S'hormig\xc3\xb3n celular 5 k=0.430'
p261
tp262
a(F0.112
S'hormig\xc3\xb3n con carb\xc3\xb3n k=0.112'
p263
tp264
a(F0.318
S'hormig\xc3\xb3n con c\xc3\xa1scara de arroz y canto rodado 1 k=0.318'
p265
tp266
a(F0.38700000000000001
S'hormig\xc3\xb3n con c\xc3\xa1scara de arroz y canto rodado 2 k=0.387'
p267
tp268
a(F0.54200000000000004
S'hormig\xc3\xb3n con c\xc3\xa1scara de arroz y canto rodado 3 k=0.542'
p269
tp270
a(F0.93700000000000006
S'hormig\xc3\xb3n con c\xc3\xa1scara de arroz y canto rodado 4 k=0.937'
p271
tp272
a(F0.076999999999999999
S'hormig\xc3\xb3n con fibras celul\xc3\xb3sicas 1 k=0.077'
p273
tp274
a(F0.12
S'hormig\xc3\xb3n con fibras celul\xc3\xb3sicas 2 k=0.120'
p275
tp276
a(F0.95399999999999996
S'hormig\xc3\xb3n con fibras de vidrio (resistente a los \xc3\xa1lcalis) k=0.954'
p277
tp278
a(F0.076999999999999999
S'hormig\xc3\xb3n con poliestireno expandido 1 k=0.077'
p279
tp280
a(F0.129
S'hormig\xc3\xb3n con poliestireno expandido 2 k=0.129'
p281
tp282
a(F0.224
S'hormig\xc3\xb3n con poliestireno expandido 3 k=0.224'
p283
tp284
a(F0.30099999999999999
S'hormig\xc3\xb3n con poliestireno expandido 4 k=0.301'
p285
tp286
a(F0.12
S'hormig\xc3\xb3n con vermiculita 1 k=0.120'
p287
tp288
a(F0.13800000000000001
S'hormig\xc3\xb3n con vermiculita 2 k=0.138'
p289
tp290
a(F0.12
S'hormig\xc3\xb3n con viruta de madera 1 k=0.120'
p291
tp292
a(F0.13800000000000001
S'hormig\xc3\xb3n con viruta de madera 2 k=0.138'
p293
tp294
a(F0.189
S'hormig\xc3\xb3n de arcilla expandida 1 k=0.189'
p295
tp296
a(F0.249
S'hormig\xc3\xb3n de arcilla expandida 2 k=0.249'
p297
tp298
a(F0.30099999999999999
S'hormig\xc3\xb3n de arcilla expandida 3 k=0.301'
p299
tp300
a(F0.36099999999999999
S'hormig\xc3\xb3n de arcilla expandida 4 k=0.361'
p301
tp302
a(F0.48999999999999999
S'hormig\xc3\xb3n de arcilla expandida 5 k=0.490'
p303
tp304
a(F0.76500000000000001
S'hormig\xc3\xb3n de arcilla expandida 6 k=0.765'
p305
tp306
a(F1.0
S'hormig\xc3\xb3n de canto rodado o piedra para estructura k=1.000'
p307
tp308
a(F0.65300000000000002
S'hormig\xc3\xb3n de ladrillo triturado 1 k=0.653'
p309
tp310
a(F0.80000000000000004
S'hormig\xc3\xb3n de ladrillo triturado 2 k=0.800'
p311
tp312
a(F0.13
S'hormig\xc3\xb3n de p\xc3\xb3mez 1 k=0.130'
p313
tp314
a(F0.5
S'hormig\xc3\xb3n de p\xc3\xb3mez 2 k=0.500'
p315
tp316
a(F0.83399999999999996
S'hormig\xc3\xb3n normal con agregados p\xc3\xa9treos 1 k=0.834'
p317
tp318
a(F0.93700000000000006
S'hormig\xc3\xb3n normal con agregados p\xc3\xa9treos 2 k=0.937'
p319
tp320
a(F0.997
S'hormig\xc3\xb3n normal con agregados p\xc3\xa9treos 3 k=0.997'
p321
tp322
a(F1.204
S'hormig\xc3\xb3n normal con agregados p\xc3\xa9treos 4 k=1.204'
p323
tp324
a(F1.4019999999999999
S'hormig\xc3\xb3n normal con agregados p\xc3\xa9treos 5 k=1.402'
p325
tp326
a(F1.496
S'hormig\xc3\xb3n normal con agregados p\xc3\xa9treos 6 k=1.496'
p327
tp328
a(F1.204
S'hormig\xc3\xb3n normal con escoria de alto horno k=1.204'
p329
tp330
a(F0.65000000000000002
S'hormig\xc3\xb3n pobre cal/arena/polvo ladrillo/cascote k=0.650'
p331
tp332
a(F0.80000000000000004
S'hormig\xc3\xb3n pobre cal/arena/polvo ladrillo/cascote 2 k=0.800'
p333
tp334
a(F0.26000000000000001
S'hormig\xc3\xb3n poroso k=0.260'
p335
tp336
a(F0.040000000000000001
S'hormig\xc3\xb3n poroso 1 k=0.040'
p337
tp338
a(F0.070000000000000007
S'hormig\xc3\xb3n poroso 2 k=0.070'
p339
tp340
a(F0.11
S'hormig\xc3\xb3n poroso 3 k=0.110'
p341
tp342
a(F0.14999999999999999
S'hormig\xc3\xb3n poroso 4 k=0.150'
p343
tp344
a(F0.20999999999999999
S'hormig\xc3\xb3n poroso 5 k=0.210'
p345
tp346
a(F0.155
S'hormig\xc3\xb3n refractario k=0.155'
p347
tp348
a(F0.10000000000000001
S'hormig\xc3\xb3n y mortero de vermiculita k=0.100'
p349
tp350
a(F0.20000000000000001
S'hormig\xc3\xb3n y mortero de vermiculita 2 k=0.200'
p351
tp352
a(F0.14000000000000001
S'hormig\xc3\xb3n y mortero de vermiculita 3 k=0.140'
p353
tp354
a(F0.5
S'Hule k=0.500'
p355
tp356
a(F0.69599999999999995
S'ladrillos cer\xc3\xa1micos macizos 1 k=0.696'
p357
tp358
a(F0.78200000000000003
S'ladrillos cer\xc3\xa1micos macizos 2 k=0.782'
p359
tp360
a(F0.94599999999999995
S'ladrillos cer\xc3\xa1micos macizos 3 k=0.946'
p361
tp362
a(F0.14599999999999999
S'l\xc3\xa1mina de papel embreado y revestido k=0.146'
p363
tp364
a(F0.378
S'laminado pl\xc3\xa1stico decorativo en ambas caras k=0.378'
p365
tp366
a(F0.42099999999999999
S'laminado pl\xc3\xa1stico decorativo en una cara k=0.421'
p367
tp368
a(F0.050000000000000003
S'lana de escorias k=0.050'
p369
tp370
a(F0.039
S'lana de vidrio 1 k=0.039'
p371
tp372
a(F0.036999999999999998
S'lana de vidrio 2 k=0.037'
p373
tp374
a(F0.034000000000000002
S'lana de vidrio 3 k=0.034'
p375
tp376
a(F0.032000000000000001
S'lana de vidrio 4 k=0.032'
p377
tp378
a(F0.029000000000000001
S'lana de vidrio 5 k=0.029'
p379
tp380
a(F0.028000000000000001
S'lana de vidrio 6 k=0.028'
p381
tp382
a(F0.042999999999999997
S'lana de vidrio perpendicular a las fibras 1 k=0.043'
p383
tp384
a(F0.064000000000000001
S'lana de vidrio perpendicular a las fibras 2 k=0.064'
p385
tp386
a(F0.035999999999999997
S'lana mineral 1 k=0.036'
p387
tp388
a(F0.034000000000000002
S'lana mineral 2 k=0.034'
p389
tp390
a(F0.033000000000000002
S'lana mineral 3 k=0.033'
p391
tp392
a(F94.582999999999998
S'lat\xc3\xb3n k=94.583'
p393
tp394
a(F0.17999999999999999
S'madera de pino expuesta a la lluvia, perpendicular a las fibras k=0.180'
p395
tp396
a(F0.12
S'madera de pino protegida k=0.120'
p397
tp398
a(F0.29999999999999999
S'madera de pino protegida paralela a las fibras k=0.300'
p399
tp400
a(F0.29199999999999998
S'madera dura k=0.292'
p401
tp402
a(F0.129
S'madera enchapada k=0.129'
p403
tp404
a(F0.10000000000000001
S'madera natural con 15% de humedad 1 k=0.100'
p405
tp406
a(F0.13
S'madera natural con 15% de humedad 2 k=0.130'
p407
tp408
a(F0.20000000000000001
S'madera natural con 15% de humedad 3 k=0.200'
p409
tp410
a(F0.25
S'madera natural con 15% de humedad 4 k=0.250'
p411
tp412
a(F0.095000000000000001
S'madera terciada k=0.095'
p413
tp414
a(F0.29999999999999999
S'mamposter\xc3\xada de bloques de hormig\xc3\xb3n liviano 1 k=0.300'
p415
tp416
a(F0.38
S'mamposter\xc3\xada de bloques de hormig\xc3\xb3n liviano 2 k=0.380'
p417
tp418
a(F0.47999999999999998
S'mamposter\xc3\xada de bloques de hormig\xc3\xb3n liviano 3 k=0.480'
p419
tp420
a(F0.59999999999999998
S'mamposter\xc3\xada de bloques de hormig\xc3\xb3n liviano 4 k=0.600'
p421
tp422
a(F0.40000000000000002
S'mamposter\xc3\xada de bloques huecos de 2 c\xc3\xa1maras con bloques de hormig\xc3\xb3n liviano k=0.400'
p423
tp424
a(F0.41999999999999998
S'mamposter\xc3\xada de bloques huecos de 2 c\xc3\xa1maras con bloques de hormig\xc3\xb3n liviano k=0.420'
p425
tp426
a(F0.47999999999999998
S'mamposter\xc3\xada de bloques huecos de 3 c\xc3\xa1maras con bloques de hormig\xc3\xb3n liviano k=0.480'
p427
tp428
a(F0.41999999999999998
S'mamposter\xc3\xada de bloques huecos de 3 c\xc3\xa1maras con bloques de hormig\xc3\xb3n liviano k=0.420'
p429
tp430
a(F0.47999999999999998
S'mamposter\xc3\xada de bloques huecos de 3 c\xc3\xa1maras con bloques de hormig\xc3\xb3n liviano k=0.480'
p431
tp432
a(F0.59999999999999998
S'mamposter\xc3\xada de ladrillos comunes sin riesgos de condensaci\xc3\xb3n (interior) k=0.600'
p433
tp434
a(F0.40000000000000002
S'mamposter\xc3\xada de ladrillos huecos incluido agujeros 1 k=0.400'
p435
tp436
a(F0.45000000000000001
S'mamposter\xc3\xada de ladrillos huecos incluido agujeros 2 k=0.450'
p437
tp438
a(F0.52000000000000002
S'mamposter\xc3\xada de ladrillos huecos incluido agujeros 3 k=0.520'
p439
tp440
a(F0.90000000000000002
S'mamposter\xc3\xada de ladrillos silico calc\xc3\xa1reos (exterior) k=0.900'
p441
tp442
a(F0.80000000000000004
S'mamposter\xc3\xada de ladrillos silico calc\xc3\xa1reos (interior) k=0.800'
p443
tp444
a(F1.8
S'm\xc3\xa1rmol 1 k=1.800'
p445
tp446
a(F3.0
S'm\xc3\xa1rmol 2 k=3.000'
p447
tp448
a(F0.59999999999999998
S'mastic de asfalto y arena k=0.600'
p449
tp450
a(F1.2
S'mortero de cal y cemento k=1.200'
p451
tp452
a(F0.59999999999999998
S'mortero de cal y cemento con impermeabilizantes de cal k=0.600'
p453
tp454
a(F1.2
S'mortero de cal y cemento con siliconas k=1.200'
p455
tp456
a(F0.75
S'mortero de cemento k=0.750'
p457
tp458
a(F0.76500000000000001
S'mortero de cemento y arena 1:3 humedad 0% k=0.765'
p459
tp460
a(F1.1180000000000001
S'mortero de cemento y arena 1:3 humedad 10% k=1.118'
p461
tp462
a(F0.97199999999999998
S'mortero de cemento y arena 1:3 humedad 6% k=0.972'
p463
tp464
a(F0.79100000000000004
S'mortero de cemento y arena 1:4 humedad 0% k=0.791'
p465
tp466
a(F0.94599999999999995
S'mortero de cemento y arena 1:4 humedad 5% k=0.946'
p467
tp468
a(F0.0
S'mortero de yeso k=0.000'
p469
tp470
a(F0.55900000000000005
S'mortero de yeso y arena k=0.559'
p471
tp472
a(F1.0
S'mortero para revoques y juntas, que pueden humedecerse por condensaci\xc3\xb3n u otras causas k=1.000'
p473
tp474
a(F0.997
S'morteros para revoque y juntas (exterior) k=0.997'
p475
tp476
a(F0.80000000000000004
S'morteros para revoque y juntas (interior) k=0.800'
p477
tp478
a(F0.10299999999999999
S'nieve 1 k=0.103'
p479
tp480
a(F0.19800000000000001
S'nieve 2 k=0.198'
p481
tp482
a(F0.40400000000000003
S'nieve 3 k=0.404'
p483
tp484
a(F0.23200000000000001
S'nogal k=0.232'
p485
tp486
a(F2.3220000000000001
S'\xc3\xb3nix k=2.322'
p487
tp488
a(F0.063
S'paneles de agramiza de lino 1 k=0.063'
p489
tp490
a(F0.071999999999999995
S'paneles de agramiza de lino 2 k=0.072'
p491
tp492
a(F0.089999999999999997
S'paneles de agramiza de lino 3 k=0.090'
p493
tp494
a(F0.10000000000000001
S'paneles de agramiza de lino 4 k=0.100'
p495
tp496
a(F0.12
S'paneles de agramiza de lino 5 k=0.120'
p497
tp498
a(F0.085000000000000006
S'paneles de corcho comprimido k=0.085'
p499
tp500
a(F0.036999999999999998
S'paneles de corcho expandido y aglomerado 1 k=0.037'
p501
tp502
a(F0.041000000000000002
S'paneles de corcho expandido y aglomerado 2 k=0.041'
p503
tp504
a(F0.050000000000000003
S'paneles de fibra de madera afieltradas k=0.050'
p505
tp506
a(F0.14000000000000001
S'paneles de fibra de madera aglomerada k=0.140'
p507
tp508
a(F0.17999999999999999
S'paneles de fibra de madera comprimidas k=0.180'
p509
tp510
a(F0.40000000000000002
S'paneles o placas de yeso 1 k=0.400'
p511
tp512
a(F0.5
S'paneles o placas de yeso 2 k=0.500'
p513
tp514
a(F0.25
S'paneles o placas de yeso poroso o con agregados livianos 1 k=0.250'
p515
tp516
a(F0.28000000000000003
S'paneles o placas de yeso poroso o con agregados livianos 2 k=0.280'
p517
tp518
a(F0.34999999999999998
S'paneles o placas de yeso poroso o con agregados livianos 3 k=0.350'
p519
tp520
a(F175.40799999999999
S'papel Kraft (500 g/m2) k=175.408'
p521
tp522
a(F175.40799999999999
S'papel Kraft y l\xc3\xa1minas de asfalto reforzado k=175.408'
p523
tp524
a(F0.14599999999999999
S'parquet 1 k=0.146'
p525
tp526
a(F0.19800000000000001
S'parquet 2 k=0.198'
p527
tp528
a(F0.34999999999999998
S'pel\xc3\xadcula pl\xc3\xa1stica tipo ""MYLAR k=0.350'
p529
tp530
a(F0.155
S'perlita mortero de perlita con cemento 1 k=0.155'
p531
tp532
a(F0.075999999999999998
S'perlita mortero de perlita con cemento 2 k=0.076'
p533
tp534
a(F0.080000000000000002
S'perlita mortero de perlita con cemento 3 k=0.080'
p535
tp536
a(F0.10299999999999999
S'perlita mortero de perlita con cemento 4 k=0.103'
p537
tp538
a(F0.13800000000000001
S'perlita mortero de perlita con cemento 5 k=0.138'
p539
tp540
a(F0.045999999999999999
S'perlita mortero de perlita con yeso 1 k=0.046'
p541
tp542
a(F0.085999999999999993
S'perlita mortero de perlita con yeso 2 k=0.086'
p543
tp544
a(F0.10299999999999999
S'perlita mortero de perlita con yeso 3 k=0.103'
p545
tp546
a(F0.12
S'perlita mortero de perlita con yeso 4 k=0.120'
p547
tp548
a(F0.045999999999999999
S'perlita suelta (granulado volc\xc3\xa1nico expandido) k=0.046'
p549
tp550
a(F1.3
S'piedra calc\xc3\xa1rea 1 k=1.300'
p551
tp552
a(F1.8999999999999999
S'piedra calc\xc3\xa1rea 2 k=1.900'
p553
tp554
a(F0.997
S'piedra caliza compacta k=0.997'
p555
tp556
a(F0.80000000000000004
S'piedra caliza porosa k=0.800'
p557
tp558
a(F0.16300000000000001
S'piedra p\xc3\xb3mez 1 k=0.163'
p559
tp560
a(F0.23200000000000001
S'piedra p\xc3\xb3mez 2 k=0.232'
p561
tp562
a(F0.30099999999999999
S'piedra p\xc3\xb3mez 3 k=0.301'
p563
tp564
a(F0.499
S'piedra p\xc3\xb3mez 4 k=0.499'
p565
tp566
a(F0.16
S'piedra p\xc3\xb3mez seca al aire k=0.160'
p567
tp568
a(F0.074999999999999997
S'piedra p\xc3\xb3mez suelta k=0.075'
p569
tp570
a(F0.14999999999999999
S'piedra p\xc3\xb3mez suelta 2 k=0.150'
p571
tp572
a(F0.32700000000000001
S'piedra toba (purmicita) k=0.327'
p573
tp574
a(F2.0
S'piedras naturales porosas k=2.000'
p575
tp576
a(F0.24099999999999999
S'pino spruce, abeto paralelo a las fibras k=0.241'
p577
tp578
a(F0.112
S'pino spruce, abeto perpendicular a las fibras k=0.112'
p579
tp580
a(F1.5
S'pizarra natural (perpendicular a los estratos) k=1.500'
p581
tp582
a(F2.3999999999999999
S'pizarra natural paralelo a los estratos) k=2.400'
p583
tp584
a(F0.129
S'placas de fibrocemento 1 k=0.129'
p585
tp586
a(F0.81699999999999995
S'placas de fibrocemento 10 k=0.817'
p587
tp588
a(F0.224
S'placas de fibrocemento 2 k=0.224'
p589
tp590
a(F0.25800000000000001
S'placas de fibrocemento 3 k=0.258'
p591
tp592
a(F0.33500000000000002
S'placas de fibrocemento 4 k=0.335'
p593
tp594
a(F0.38700000000000001
S'placas de fibrocemento 5 k=0.387'
p595
tp596
a(F0.439
S'placas de fibrocemento 6 k=0.439'
p597
tp598
a(F0.499
S'placas de fibrocemento 7 k=0.499'
p599
tp600
a(F0.60199999999999998
S'placas de fibrocemento 8 k=0.602'
p601
tp602
a(F0.748
S'placas de fibrocemento 9 k=0.748'
p603
tp604
a(F0.040000000000000001
S'placas de turba, fibras de paja, celulosa, etc. 1 k=0.040'
p605
tp606
a(F0.050000000000000003
S'placas de turba, fibras de paja, celulosa, etc. 2 k=0.050'
p607
tp608
a(F0.059999999999999998
S'placas de turba, fibras de paja, celulosa, etc. 3 k=0.060'
p609
tp610
a(F0.26700000000000002
S'placas de yeso 1 k=0.267'
p611
tp612
a(F0.318
S'placas de yeso 2 k=0.318'
p613
tp614
a(F0.378
S'placas de yeso 3 k=0.378'
p615
tp616
a(F0.439
S'placas de yeso 4 k=0.439'
p617
tp618
a(F0.032000000000000001
S'pl\xc3\xa1sticos expandidos 1 k=0.032'
p619
tp620
a(F0.034000000000000002
S'pl\xc3\xa1sticos expandidos 2 k=0.034'
p621
tp622
a(F0.035999999999999997
S'pl\xc3\xa1sticos expandidos 3 k=0.036'
p623
tp624
a(F30.0
S'plomo k=30.000'
p625
tp626
a(F0.19800000000000001
S'policarbonato k=0.198'
p627
tp628
a(F0.13800000000000001
S'policloruro de vinilo r\xc3\xadgido k=0.138'
p629
tp630
a(F0.34999999999999998
S'poli\xc3\xa9ster 25mm k=0.350'
p631
tp632
a(F0.14599999999999999
S'poliestireno k=0.146'
p633
tp634
a(F0.42999999999999999
S'poliestireno alta densidad k=0.430'
p635
tp636
a(F0.30099999999999999
S'poliestireno baja densidad k=0.301'
p637
tp638
a(F0.032000000000000001
S'poliestireno expandido en planchas 1 k=0.032'
p639
tp640
a(F0.029999999999999999
S'poliestireno expandido en planchas 2 k=0.030'
p641
tp642
a(F0.028000000000000001
S'poliestireno expandido en planchas 3 k=0.028'
p643
tp644
a(F0.028000000000000001
S'poliestireno expandido en planchas 4 k=0.028'
p645
tp646
a(F0.34999999999999998
S'polietileno 0.05mm k=0.350'
p647
tp648
a(F0.34999999999999998
S'polietileno 0.1mm k=0.350'
p649
tp650
a(F0.34999999999999998
S'polietileno 0.15mm k=0.350'
p651
tp652
a(F0.34999999999999998
S'polietileno 0.2mm k=0.350'
p653
tp654
a(F0.34999999999999998
S'polietileno 0.25mm k=0.350'
p655
tp656
a(F0.20599999999999999
S'polipropileno k=0.206'
p657
tp658
a(F0.019
S'poliuretano (espumas r\xc3\xadgidas) entre chapas o placas que hacen de barrera de vapor k=0.019'
p659
tp660
a(F0.023
S'poliuretano (espumas r\xc3\xadgidas) placas aislantes sin protecci\xc3\xb3n k=0.023'
p661
tp662
a(F0.019
S'poliuretano (espumas r\xc3\xadgidas) proyectadas in situ, protegidas entre barreras de vapor k=0.019'
p663
tp664
a(F0.021000000000000001
S'poliuretano (espumas r\xc3\xadgidas) proyectadas in situ, protegidas entre frenos de vapor k=0.021'
p665
tp666
a(F2.0
S'p\xc3\xb3rfido k=2.000'
p667
tp668
a(F0.17199999999999999
S'resina acr\xc3\xadlica k=0.172'
p669
tp670
a(F0.20599999999999999
S'roble k=0.206'
p671
tp672
a(F0.26700000000000002
S'rocas y terrenos k=0.267'
p673
tp674
a(F0.24099999999999999
S'suelo natural k=0.241'
p675
tp676
a(F1.8
S'suelos arcillosos naturalmente h\xc3\xbamedos k=1.800'
p677
tp678
a(F0.033000000000000002
S'sustancias org\xc3\xa1nicas fibrosas sueltas k=0.033'
p679
tp680
a(F0.040000000000000001
S'tableros de fibra de madera 1 k=0.040'
p681
tp682
a(F0.045999999999999999
S'tableros de fibra de madera 2 k=0.046'
p683
tp684
a(F0.048000000000000001
S'tableros de fibra de madera 3 k=0.048'
p685
tp686
a(F0.051999999999999998
S'tableros de part\xc3\xadculas aglomeradas 1 k=0.052'
p687
tp688
a(F0.058999999999999997
S'tableros de part\xc3\xadculas aglomeradas 2 k=0.059'
p689
tp690
a(F0.067000000000000004
S'tableros de part\xc3\xadculas aglomeradas 3 k=0.067'
p691
tp692
a(F0.074999999999999997
S'tableros de part\xc3\xadculas aglomeradas 4 k=0.075'
p693
tp694
a(F0.076999999999999999
S'tableros de part\xc3\xadculas aglomeradas 5 k=0.077'
p695
tp696
a(F0.095000000000000001
S'tableros de part\xc3\xadculas aglomeradas 6 k=0.095'
p697
tp698
a(F0.112
S'tableros de part\xc3\xadculas aglomeradas 7 k=0.112'
p699
tp700
a(F0.129
S'tableros de part\xc3\xadculas aglomeradas 8 k=0.129'
p701
tp702
a(F0.14599999999999999
S'tableros de part\xc3\xadculas aglomeradas 9 k=0.146'
p703
tp704
a(F0.063
S'tableros de part\xc3\xadculas de lino 1 k=0.063'
p705
tp706
a(F0.070000000000000007
S'tableros de part\xc3\xadculas de lino 2 k=0.070'
p707
tp708
a(F0.095000000000000001
S'tableros de part\xc3\xadculas de lino 3 k=0.095'
p709
tp710
a(F0.01
S'tableros de part\xc3\xadculas de lino 4 k=0.010'
p711
tp712
a(F0.129
S'tableros de part\xc3\xadculas de lino 5 k=0.129'
p713
tp714
a(F0.021000000000000001
S'tableros lignocelul\xc3\xb3sicos de part\xc3\xadculas aglomeradas mediante resinas sint\xc3\xa9ticas k=0.021'
p715
tp716
a(F0.13800000000000001
S'teca paralela a las fibras k=0.138'
p717
tp718
a(F0.12
S'teca perpendicular a las fibras k=0.120'
p719
tp720
a(F0.14599999999999999
S'techado y fieltro asf\xc3\xa1ltico k=0.146'
p721
tp722
a(F0.60199999999999998
S'tejas curvas k=0.602'
p723
tp724
a(F0.39600000000000002
S'tejas planas k=0.396'
p725
tp726
a(F0.095000000000000001
S'vermiculita con cemento 1 k=0.095'
p727
tp728
a(F0.112
S'vermiculita con cemento 2 k=0.112'
p729
tp730
a(F0.14599999999999999
S'vermiculita con cemento 3 k=0.146'
p731
tp732
a(F0.17199999999999999
S'vermiculita con cemento 4 k=0.172'
p733
tp734
a(F0.20599999999999999
S'vermiculita con cemento 5 k=0.206'
p735
tp736
a(F0.059999999999999998
S'vermiculita suelta 1 k=0.060'
p737
tp738
a(F0.070000000000000007
S'vermiculita suelta 2 k=0.070'
p739
tp740
a(F0.095000000000000001
S'vermiculita y yeso (placas o revoque) 1 k=0.095'
p741
tp742
a(F0.112
S'vermiculita y yeso (placas o revoque) 2 k=0.112'
p743
tp744
a(F0.129
S'vermiculita y yeso (placas o revoque) 3 k=0.129'
p745
tp746
a(F0.16300000000000001
S'vermiculita y yeso (placas o revoque) 4 k=0.163'
p747
tp748
a(F0.189
S'vermiculita y yeso (placas o revoque) 5 k=0.189'
p749
tp750
a(F0.224
S'vermiculita y yeso (placas o revoque) 6 k=0.224'
p751
tp752
a(F0.249
S'vermiculita y yeso (placas o revoque) 7 k=0.249'
p753
tp754
a(F0.29199999999999998
S'vermiculita y yeso (placas o revoque) 8 k=0.292'
p755
tp756
a(F0.69999999999999996
S'vidrio k=0.700'
p757
tp758
a(F0.90300000000000002
S'vidrio armado con malla met\xc3\xa1lica k=0.903'
p759
tp760
a(F0.499
S'vidrio para ventanas k=0.499'
p761
tp762
a(F0.85999999999999999
S'vidrio resistente al calor k=0.860'
p763
tp764
a.