(dp0
S'SAN CARLOS'
p1
(dp2
S'invierno'
p3
(dp4
S'TMED'
p5
S'5.90'
p6
sS'TMIN'
p7
S'-2.20'
p8
sS'TDMN'
p9
S'-6.70'
p10
sS'TROC'
p11
S'-0.60'
p12
sS'TVAP'
p13
S'6.10'
p14
sS'TMAX'
p15
S'15.10'
p16
sS'GD20'
p17
S'2402.00'
p18
sS'HR'
p19
S'67.00'
p20
sS'LONG'
p21
S'69.00'
p22
sS'TDMD'
p23
S'1.40'
p24
sS'P'
p25
S'MZ'
p26
sS'ASNM'
p27
S'940.00'
p28
sS'PREC'
p29
S'9.00'
p30
sS'HELRE'
p31
S'0.00'
p32
sS'LAT'
p33
S'33.80'
p34
sS'ESTACION'
p35
S'SAN CARLOS'
p36
sS'GD18'
p37
S'1849.00'
p38
sS'GD22'
p39
S'3118.00'
p40
ssS'verano'
p41
(dp42
S'TMED'
p43
S'20.40'
p44
sS'TMIN'
p45
S'10.90'
p46
sS'TEC-MX'
p47
S'23.90'
p48
sS'TVAP'
p49
S'12.60'
p50
sS'TMAX'
p51
S'29.30'
p52
sS'HR'
p53
S'53.00'
p54
sS'LONG'
p55
S'69.00'
p56
sS'TDMD'
p57
S'19.60'
p58
sg25
S'MZ'
p59
sS'ZBIO'
p60
S'6'
p61
sS'ASNM'
p62
S'940.00'
p63
sS'TEC-MD'
p64
S'19.20'
p65
sS'PREC'
p66
S'31.00'
p67
sS'TROC'
p68
S'9.90'
p69
sS'HELRE'
p70
S'0.00'
p71
sS'LAT'
p72
S'33.80'
p73
sS'TDMX'
p74
S'32.80'
p75
sS'ESTACION'
p76
g1
sssS'VILLA DOLORES'
p77
(dp78
g3
(dp79
g5
S'11.50'
p80
sg7
S'5.60'
p81
sg9
S'1.10'
p82
sg11
S'1.60'
p83
sg13
S'7.40'
p84
sg15
S'19.20'
p85
sg17
S'952.00'
p86
sg19
S'55.00'
p87
sg21
S'65.10'
p88
sg23
S'7.00'
p89
sg25
S'CD'
p90
sg27
S'569.00'
p91
sg29
S'9.00'
p92
sg31
S'64.00'
p93
sg33
S'32.00'
p94
sg35
S'VILLA DOLORES'
p95
sg37
S'617.00'
p96
sg39
S'1380.00'
p97
ssg41
(dp98
g43
S'24.30'
p99
sg45
S'17.60'
p100
sg47
S'26.70'
p101
sg49
S'16.10'
p102
sg51
S'31.90'
p103
sg53
S'55.00'
p104
sg55
S'65.10'
p105
sg57
S'24.30'
p106
sg25
S'CD'
p107
sg60
S'3'
p108
sg62
S'569.00'
p109
sg64
S'22.90'
p110
sg66
S'94.00'
p111
sg68
S'13.60'
p112
sg70
S'62.00'
p113
sg72
S'32.00'
p114
sg74
S'35.40'
p115
sg76
g77
sssS'PILAR'
p116
(dp117
g3
(dp118
g5
S'11.00'
p119
sg7
S'5.00'
p120
sg9
S'0.50'
p121
sg11
S'3.80'
p122
sg13
S'8.70'
p123
sg15
S'18.50'
p124
sg17
S'1161.00'
p125
sg19
S'66.00'
p126
sg21
S'63.90'
p127
sg23
S'6.50'
p128
sg25
S'CD'
p129
sg27
S'338.00'
p130
sg29
S'10.00'
p131
sg31
S'60.00'
p132
sg33
S'31.70'
p133
sg35
S'PILAR'
p134
sg37
S'744.00'
p135
sg39
S'1649.00'
p136
ssg41
(dp137
g43
S'22.80'
p138
sg45
S'16.50'
p139
sg47
S'25.90'
p140
sg49
S'17.60'
p141
sg51
S'30.30'
p142
sg53
S'66.00'
p143
sg55
S'63.90'
p144
sg57
S'22.90'
p145
sg25
S'CD'
p146
sg60
g108
sg62
S'338.00'
p147
sg64
S'21.80'
p148
sg66
S'101.00'
p149
sg68
S'15.30'
p150
sg70
S'65.00'
p151
sg72
S'31.70'
p152
sg74
S'33.80'
p153
sg76
g116
sssS'DOLORES'
p154
(dp155
g3
(dp156
g5
S'8.80'
p157
sg7
S'4.20'
p158
sg9
S'-0.30'
p159
sg11
S'5.70'
p160
sg13
S'9.70'
p161
sg15
S'14.90'
p162
sg17
S'1868.00'
p163
sg19
S'81.00'
p164
sg21
S'57.70'
p165
sg23
S'4.30'
p166
sg25
S'BAP'
p167
sg27
S'9.00'
p168
sg29
S'57.00'
p169
sg31
S'41.00'
p170
sg33
S'36.40'
p171
sg35
S'DOLORES'
p172
sg37
S'1345.00'
p173
sg39
S'2523.00'
p174
ssg41
(dp175
g43
S'20.80'
p176
sg45
S'13.80'
p177
sg47
S'24.30'
p178
sg49
S'17.50'
p179
sg51
S'27.90'
p180
sg53
S'72.00'
p181
sg55
S'57.70'
p182
sg57
S'20.40'
p183
sg25
S'BAP'
p184
sg60
g108
sg62
S'9.00'
p185
sg64
S'20.20'
p186
sg66
S'85.00'
p187
sg68
S'14.90'
p188
sg70
S'62.00'
p189
sg72
S'36.40'
p190
sg74
S'31.40'
p191
sg76
g154
sssS'PRES. ROQUE.S.PE\xc3\x91A'
p192
(dp193
g3
(dp194
g5
S'16.10'
p195
sg7
S'10.30'
p196
sg9
S'5.80'
p197
sg11
S'10.40'
p198
sg13
S'13.40'
p199
sg15
S'23.40'
p200
sg17
S'306.00'
p201
sg19
S'73.00'
p202
sg21
S'60.50'
p203
sg23
S'11.60'
p204
sg25
S'CHC'
p205
sg27
S'92.00'
p206
sg29
S'18.00'
p207
sg31
S'57.00'
p208
sg33
S'26.80'
p209
sg35
S'PRES. ROQUE.S.PENA'
p210
sg37
S'108.00'
p211
sg39
S'608.00'
p212
ssg41
(dp213
g43
S'26.50'
p214
sg45
S'20.30'
p215
sg47
S'28.00'
p216
sg49
S'23.00'
p217
sg51
S'33.40'
p218
sg53
S'68.00'
p219
sg55
S'60.50'
p220
sg57
S'26.30'
p221
sg25
S'CHC'
p222
sg60
S'1'
p223
sg62
S'92.00'
p224
sg64
S'24.80'
p225
sg66
S'137.00'
p226
sg68
S'19.40'
p227
sg70
S'63.00'
p228
sg72
S'26.80'
p229
sg74
S'36.90'
p230
sg76
g192
sssS'ISLAS ORCADAS'
p231
(dp232
g3
(dp233
g5
S'-8.80'
p234
sg7
S'-13.20'
p235
sg9
S'-17.70'
p236
sg11
S'-9.90'
p237
sg13
S'3.40'
p238
sg15
S'-4.80'
p239
sg17
S'8621.00'
p240
sg19
S'86.00'
p241
sg21
S'44.70'
p242
sg23
S'-13.30'
p243
sg25
S'TF'
p244
sg27
S'4.00'
p245
sg29
S'57.00'
p246
sg31
S'6.00'
p247
sg33
S'60.70'
p248
sg35
S'ISLAS ORCADAS'
p249
sg37
S'7891.00'
p250
sg39
S'9351.00'
p251
ssg41
(dp252
g43
S'0.40'
p253
sg45
S'-1.30'
p254
sg47
S'11.10'
p255
sg49
S'5.50'
p256
sg51
S'2.50'
p257
sg53
S'87.00'
p258
sg55
S'44.70'
p259
sg57
S'0.10'
p260
sg25
S'TF'
p261
sg60
g61
sg62
S'4.00'
p262
sg64
S'6.20'
p263
sg66
S'69.00'
p264
sg68
S'-1.50'
p265
sg70
S'7.00'
p266
sg72
S'60.70'
p267
sg74
S'60.00'
p268
sg76
g231
sssS'COMDTE. ESPORA'
p269
(dp270
g3
(dp271
g5
S'8.20'
p272
sg7
S'3.10'
p273
sg9
S'-1.40'
p274
sg11
S'3.10'
p275
sg13
S'8.10'
p276
sg15
S'14.50'
p277
sg17
S'1927.00'
p278
sg19
S'74.00'
p279
sg21
S'62.20'
p280
sg23
S'3.70'
p281
sg25
S'BAP'
p282
sg27
S'74.00'
p283
sg29
S'31.00'
p284
sg31
S'50.00'
p285
sg33
S'38.70'
p286
sg35
S'COMDTE. ESPORA'
p287
sg37
S'1427.00'
p288
sg39
S'2514.00'
p289
ssg41
(dp290
g43
S'21.80'
p291
sg45
S'14.50'
p292
sg47
S'25.00'
p293
sg49
S'13.60'
p294
sg51
S'29.60'
p295
sg53
S'55.00'
p296
sg55
S'62.20'
p297
sg57
S'21.50'
p298
sg25
S'BAP'
p299
sg60
g108
sg62
S'74.00'
p300
sg64
S'20.80'
p301
sg66
S'62.00'
p302
sg68
S'10.90'
p303
sg70
S'66.00'
p304
sg72
S'38.70'
p305
sg74
S'33.10'
p306
sg76
g269
sssS'AZUL'
p307
(dp308
g3
(dp309
g5
S'7.70'
p310
sg7
S'2.40'
p311
sg9
S'-2.10'
p312
sg11
S'4.70'
p313
sg13
S'9.00'
p314
sg15
S'14.20'
p315
sg17
S'2166.00'
p316
sg19
S'84.00'
p317
sg21
S'59.80'
p318
sg23
S'3.20'
p319
sg25
S'BAP'
p320
sg27
S'132.00'
p321
sg29
S'42.00'
p322
sg31
S'41.00'
p323
sg33
S'36.80'
p324
sg35
S'AZUL'
p325
sg37
S'1598.00'
p326
sg39
S'2843.00'
p327
ssg41
(dp328
g43
S'20.10'
p329
sg45
S'12.60'
p330
sg47
S'24.00'
p331
sg49
S'16.80'
p332
sg51
S'28.20'
p333
sg53
S'73.00'
p334
sg55
S'59.80'
p335
sg57
S'19.90'
p336
sg25
S'BAP'
p337
sg60
g108
sg62
S'132.00'
p338
sg64
S'19.40'
p339
sg66
S'94.00'
p340
sg68
S'14.30'
p341
sg70
S'55.00'
p342
sg72
S'36.80'
p343
sg74
S'31.70'
p344
sg76
g307
sssS'VILLA NOGUES'
p345
(dp346
g3
(dp347
g5
S'10.30'
p348
sg7
S'6.50'
p349
sg9
S'2.00'
p350
sg11
S'3.90'
p351
sg13
S'8.50'
p352
sg15
S'15.40'
p353
sg17
S'1646.00'
p354
sg19
S'67.00'
p355
sg21
S'65.40'
p356
sg23
S'5.80'
p357
sg25
S'TC'
p358
sg27
S'1388.00'
p359
sg29
S'30.00'
p360
sg31
S'0.00'
p361
sg33
S'26.90'
p362
sg35
S'VILLA NOGUES'
p363
sg37
S'1059.00'
p364
sg39
S'2376.00'
p365
ssg41
(dp366
g43
S'18.60'
p367
sg45
S'15.50'
p368
sg47
S'23.20'
p369
sg49
S'17.20'
p370
sg51
S'23.40'
p371
sg53
S'79.00'
p372
sg55
S'65.40'
p373
sg57
S'19.00'
p374
sg25
S'TC'
p375
sg60
S'2'
p376
sg62
S'1388.00'
p377
sg64
S'19.50'
p378
sg66
S'237.00'
p379
sg68
S'14.80'
p380
sg70
S'0.00'
p381
sg72
S'26.90'
p382
sg74
S'26.90'
p383
sg76
g345
sssS'VALLE FERTIL'
p384
(dp385
g3
(dp386
g5
S'10.30'
p387
sg7
S'4.00'
p388
sg9
S'-0.50'
p389
sg11
S'1.70'
p390
sg13
S'7.20'
p391
sg15
S'18.50'
p392
sg17
S'1201.00'
p393
sg19
S'59.00'
p394
sg21
S'67.50'
p395
sg23
S'5.80'
p396
sg25
S'SJ'
p397
sg27
S'857.00'
p398
sg29
S'2.00'
p399
sg31
S'0.00'
p400
sg33
S'30.60'
p401
sg35
S'VALLE FERTIL'
p402
sg37
S'804.00'
p403
sg39
S'1660.00'
p404
ssg41
(dp405
g43
S'23.60'
p406
sg45
S'16.60'
p407
sg47
S'26.30'
p408
sg49
S'17.00'
p409
sg51
S'31.50'
p410
sg53
S'58.00'
p411
sg55
S'67.50'
p412
sg57
S'23.60'
p413
sg25
S'SJ'
p414
sg60
g376
sg62
S'857.00'
p415
sg64
S'22.30'
p416
sg66
S'62.00'
p417
sg68
S'14.60'
p418
sg70
S'0.00'
p419
sg72
S'30.60'
p420
sg74
S'35.00'
p421
sg76
g384
sssS'CATMARCA (INTA)'
p422
(dp423
g3
(dp424
g5
S'12.80'
p425
sg7
S'6.40'
p426
sg9
S'1.90'
p427
sg11
S'5.40'
p428
sg13
S'9.30'
p429
sg15
S'20.60'
p430
sg17
S'694.00'
p431
sg19
S'62.00'
p432
sg21
S'65.70'
p433
sg23
S'8.30'
p434
sg25
S'CA'
p435
sg27
S'525.00'
p436
sg29
S'5.00'
p437
sg31
S'65.00'
p438
sg33
S'28.50'
p439
sg35
S'CATMARCA (INTA)'
p440
sg37
S'426.00'
p441
sg39
S'1000.00'
p442
ssg41
(dp443
g43
S'26.00'
p444
sg45
S'21.20'
p445
sg47
S'27.90'
p446
sg49
S'19.90'
p447
sg51
S'32.40'
p448
sg53
S'59.00'
p449
sg55
S'65.70'
p450
sg57
S'26.30'
p451
sg25
S'CA'
p452
sg60
S'4'
p453
sg62
S'525.00'
p454
sg64
S'24.70'
p455
sg66
S'69.00'
p456
sg68
S'17.10'
p457
sg70
S'67.00'
p458
sg72
S'28.50'
p459
sg74
S'35.90'
p460
sg76
g422
sssS'GOBERNADOR COSTA'
p461
(dp462
g3
(dp463
g5
S'2.10'
p464
sg7
S'-2.40'
p465
sg9
S'-6.90'
p466
sg11
S'-2.40'
p467
sg13
S'5.30'
p468
sg15
S'7.20'
p469
sg17
S'4378.00'
p470
sg19
S'74.00'
p471
sg21
S'70.40'
p472
sg23
S'-2.40'
p473
sg25
S'CHB'
p474
sg27
S'730.00'
p475
sg29
S'25.00'
p476
sg31
S'0.00'
p477
sg33
S'44.40'
p478
sg35
S'GOBERNADOR COSTA'
p479
sg37
S'3647.00'
p480
sg39
S'5108.00'
p481
ssg41
(dp482
g43
S'13.00'
p483
sg45
S'5.60'
p484
sg47
S'19.50'
p485
sg49
S'7.10'
p486
sg51
S'20.90'
p487
sg53
S'50.00'
p488
sg55
S'70.40'
p489
sg57
S'12.70'
p490
sg25
S'CHB'
p491
sg60
g453
sg62
S'730.00'
p492
sg64
S'14.00'
p493
sg66
S'6.00'
p494
sg68
S'1.70'
p495
sg70
S'0.00'
p496
sg72
S'44.40'
p497
sg74
S'24.40'
p498
sg76
g461
sssS'PASO DE LOS LIBRES'
p499
(dp500
g3
(dp501
g5
S'14.10'
p502
sg7
S'9.20'
p503
sg9
S'4.70'
p504
sg11
S'10.40'
p505
sg13
S'13.40'
p506
sg15
S'19.80'
p507
sg17
S'713.00'
p508
sg19
S'80.00'
p509
sg21
S'57.20'
p510
sg23
S'9.60'
p511
sg25
S'CR'
p512
sg27
S'70.00'
p513
sg29
S'67.00'
p514
sg31
S'43.00'
p515
sg33
S'29.70'
p516
sg35
S'PASO DE LOS LIBRES'
p517
sg37
S'377.00'
p518
sg39
S'1141.00'
p519
ssg41
(dp520
g43
S'25.40'
p521
sg45
S'19.10'
p522
sg47
S'27.00'
p523
sg49
S'20.60'
p524
sg51
S'31.40'
p525
sg53
S'65.00'
p526
sg55
S'57.20'
p527
sg57
S'24.70'
p528
sg25
S'CR'
p529
sg60
g376
sg62
S'70.00'
p530
sg64
S'24.10'
p531
sg66
S'123.00'
p532
sg68
S'17.60'
p533
sg70
S'54.00'
p534
sg72
S'29.70'
p535
sg74
S'34.90'
p536
sg76
g499
sssS'MENDOZA'
p537
(dp538
g3
(dp539
g5
S'8.80'
p540
sg7
S'4.20'
p541
sg9
S'-0.30'
p542
sg11
S'0.30'
p543
sg13
S'6.50'
p544
sg15
S'15.70'
p545
sg17
S'1479.00'
p546
sg19
S'58.00'
p547
sg21
S'68.90'
p548
sg23
S'4.30'
p549
sg25
S'MZ'
p550
sg27
S'828.00'
p551
sg29
S'4.00'
p552
sg31
S'60.00'
p553
sg33
S'32.90'
p554
sg35
S'MENDOZA'
p555
sg37
S'1051.00'
p556
sg39
S'1986.00'
p557
ssg41
(dp558
g43
S'22.90'
p559
sg45
S'17.80'
p560
sg47
S'25.90'
p561
sg49
S'14.40'
p562
sg51
S'29.50'
p563
sg53
S'51.00'
p564
sg55
S'68.90'
p565
sg57
S'23.20'
p566
sg25
S'MZ'
p567
sg60
g61
sg62
S'828.00'
p568
sg64
S'22.30'
p569
sg66
S'29.00'
p570
sg68
S'12.00'
p571
sg70
S'61.00'
p572
sg72
S'32.90'
p573
sg74
S'33.00'
p574
sg76
g537
sssS'LAS LOMITAS'
p575
(dp576
g3
(dp577
g5
S'17.30'
p578
sg7
S'11.10'
p579
sg9
S'6.60'
p580
sg11
S'10.20'
p581
sg13
S'13.30'
p582
sg15
S'25.00'
p583
sg17
S'179.00'
p584
sg19
S'68.00'
p585
sg21
S'60.60'
p586
sg23
S'12.80'
p587
sg25
S'FM'
p588
sg27
S'130.00'
p589
sg29
S'13.00'
p590
sg31
S'59.00'
p591
sg33
S'24.70'
p592
sg35
S'LAS LOMITAS'
p593
sg37
S'41.00'
p594
sg39
S'409.00'
p595
ssg41
(dp596
g43
S'27.40'
p597
sg45
S'21.00'
p598
sg47
S'28.60'
p599
sg49
S'22.40'
p600
sg51
S'34.70'
p601
sg53
S'64.00'
p602
sg55
S'60.60'
p603
sg57
S'27.30'
p604
sg25
S'FM'
p605
sg60
g223
sg62
S'130.00'
p606
sg64
S'25.40'
p607
sg66
S'114.00'
p608
sg68
S'18.90'
p609
sg70
S'66.00'
p610
sg72
S'24.70'
p611
sg74
S'38.20'
p612
sg76
g575
sssS'COLONIA CASTELLI'
p613
(dp614
g3
(dp615
g5
S'16.30'
p616
sg7
S'10.30'
p617
sg9
S'5.80'
p618
sg11
S'10.00'
p619
sg13
S'13.10'
p620
sg15
S'24.70'
p621
sg17
S'232.00'
p622
sg19
S'68.00'
p623
sg21
S'60.60'
p624
sg23
S'11.80'
p625
sg25
S'CHC'
p626
sg27
S'111.00'
p627
sg29
S'18.00'
p628
sg31
S'0.00'
p629
sg33
S'26.00'
p630
sg35
S'COLONIA CASTELLI'
p631
sg37
S'70.00'
p632
sg39
S'334.00'
p633
ssg41
(dp634
g43
S'26.50'
p635
sg45
S'20.40'
p636
sg47
S'28.70'
p637
sg49
S'22.50'
p638
sg51
S'35.20'
p639
sg53
S'66.00'
p640
sg55
S'60.60'
p641
sg57
S'27.30'
p642
sg25
S'CHC'
p643
sg60
g223
sg62
S'111.00'
p644
sg64
S'24.50'
p645
sg66
S'126.00'
p646
sg68
S'19.10'
p647
sg70
S'0.00'
p648
sg72
S'26.00'
p649
sg74
S'38.70'
p650
sg76
g613
sssS'CONCORDIA'
p651
(dp652
g3
(dp653
g5
S'13.10'
p654
sg7
S'8.30'
p655
sg9
S'3.80'
p656
sg11
S'9.30'
p657
sg13
S'12.40'
p658
sg15
S'18.50'
p659
sg17
S'924.00'
p660
sg19
S'80.00'
p661
sg21
S'58.00'
p662
sg23
S'8.60'
p663
sg25
S'ER'
p664
sg27
S'38.00'
p665
sg29
S'90.00'
p666
sg31
S'0.00'
p667
sg33
S'31.30'
p668
sg35
S'CONCORDIA'
p669
sg37
S'532.00'
p670
sg39
S'1376.00'
p671
ssg41
(dp672
g43
S'24.80'
p673
sg45
S'18.30'
p674
sg47
S'26.60'
p675
sg49
S'19.50'
p676
sg51
S'31.00'
p677
sg53
S'63.00'
p678
sg55
S'58.00'
p679
sg57
S'24.10'
p680
sg25
S'ER'
p681
sg60
g376
sg62
S'38.00'
p682
sg64
S'23.50'
p683
sg66
S'128.00'
p684
sg68
S'16.60'
p685
sg70
S'0.00'
p686
sg72
S'31.30'
p687
sg74
S'34.50'
p688
sg76
g651
sssS'MONTE QUEMADO'
p689
(dp690
g3
(dp691
g5
S'16.20'
p692
sg7
S'10.10'
p693
sg9
S'5.60'
p694
sg11
S'7.90'
p695
sg13
S'11.40'
p696
sg15
S'24.00'
p697
sg17
S'278.00'
p698
sg19
S'61.00'
p699
sg21
S'62.90'
p700
sg23
S'11.70'
p701
sg25
S'SE'
p702
sg27
S'221.00'
p703
sg29
S'7.00'
p704
sg31
S'0.00'
p705
sg33
S'25.80'
p706
sg35
S'MONTE QUEMADO'
p707
sg37
S'108.00'
p708
sg39
S'538.00'
p709
ssg41
(dp710
g43
S'27.20'
p711
sg45
S'20.80'
p712
sg47
S'28.70'
p713
sg49
S'21.00'
p714
sg51
S'34.80'
p715
sg53
S'64.00'
p716
sg55
S'62.90'
p717
sg57
S'27.30'
p718
sg25
S'SE'
p719
sg60
g376
sg62
S'221.00'
p720
sg64
S'25.20'
p721
sg66
S'104.00'
p722
sg68
S'17.90'
p723
sg70
S'0.00'
p724
sg72
S'25.80'
p725
sg74
S'38.30'
p726
sg76
g689
sssS'PUELCHES'
p727
(dp728
g3
(dp729
g5
S'7.30'
p730
sg7
S'1.00'
p731
sg9
S'-3.50'
p732
sg11
S'1.00'
p733
sg13
S'7.00'
p734
sg15
S'15.30'
p735
sg17
S'1883.00'
p736
sg19
S'69.00'
p737
sg21
S'65.90'
p738
sg23
S'2.80'
p739
sg25
S'LP'
p740
sg27
S'232.00'
p741
sg29
S'14.00'
p742
sg31
S'48.00'
p743
sg33
S'38.10'
p744
sg35
S'PUELCHES'
p745
sg37
S'1450.00'
p746
sg39
S'2433.00'
p747
ssg41
(dp748
g43
S'17.40'
p749
sg45
S'11.00'
p750
sg47
S'22.30'
p751
sg49
S'9.70'
p752
sg51
S'24.60'
p753
sg53
S'51.00'
p754
sg55
S'65.90'
p755
sg57
S'17.30'
p756
sg25
S'LP'
p757
sg60
g108
sg62
S'232.00'
p758
sg64
S'17.70'
p759
sg66
S'21.00'
p760
sg68
S'5.70'
p761
sg70
S'48.00'
p762
sg72
S'38.10'
p763
sg74
S'28.10'
p764
sg76
g727
sssS'GENERAL PICO'
p765
(dp766
g3
(dp767
g5
S'8.90'
p768
sg7
S'2.70'
p769
sg9
S'-1.80'
p770
sg11
S'3.70'
p771
sg13
S'8.50'
p772
sg15
S'16.10'
p773
sg17
S'1653.00'
p774
sg19
S'74.00'
p775
sg21
S'63.80'
p776
sg23
S'4.40'
p777
sg25
S'LP'
p778
sg27
S'141.00'
p779
sg29
S'15.00'
p780
sg31
S'40.00'
p781
sg33
S'35.70'
p782
sg35
S'GENERAL PICO'
p783
sg37
S'1204.00'
p784
sg39
S'2203.00'
p785
ssg41
(dp786
g43
S'23.40'
p787
sg45
S'15.10'
p788
sg47
S'25.70'
p789
sg49
S'14.90'
p790
sg51
S'30.90'
p791
sg53
S'228.00'
p792
sg55
S'63.80'
p793
sg57
S'22.50'
p794
sg25
S'LP'
p795
sg60
g108
sg62
S'141.00'
p796
sg64
S'21.90'
p797
sg66
S'78.00'
p798
sg68
S'12.30'
p799
sg70
S'53.00'
p800
sg72
S'35.70'
p801
sg74
S'34.40'
p802
sg76
g765
sssS'SAN CLEMENTE'
p803
(dp804
g3
(dp805
g5
S'9.10'
p806
sg7
S'6.40'
p807
sg9
S'1.90'
p808
sg11
S'7.70'
p809
sg13
S'10.80'
p810
sg15
S'13.40'
p811
sg17
S'1809.00'
p812
sg19
S'88.00'
p813
sg21
S'56.70'
p814
sg23
S'4.60'
p815
sg25
S'BAP'
p816
sg27
S'3.00'
p817
sg29
S'84.00'
p818
sg31
S'0.00'
p819
sg33
S'36.40'
p820
sg35
S'SAN CLEMENTE'
p821
sg37
S'1309.00'
p822
sg39
S'2440.00'
p823
ssg41
(dp824
g43
S'19.80'
p825
sg45
S'17.00'
p826
sg47
S'24.20'
p827
sg49
S'19.60'
p828
sg51
S'25.20'
p829
sg53
S'83.00'
p830
sg55
S'56.70'
p831
sg57
S'20.60'
p832
sg25
S'BAP'
p833
sg60
g108
sg62
S'3.00'
p834
sg64
S'20.50'
p835
sg66
S'91.00'
p836
sg68
S'16.80'
p837
sg70
S'0.00'
p838
sg72
S'36.40'
p839
sg74
S'28.70'
p840
sg76
g803
sssS'ESPERANZA'
p841
(dp842
g3
(dp843
g5
S'12.50'
p844
sg7
S'7.00'
p845
sg9
S'2.50'
p846
sg11
S'7.90'
p847
sg13
S'11.30'
p848
sg15
S'19.10'
p849
sg17
S'914.00'
p850
sg19
S'75.00'
p851
sg21
S'60.90'
p852
sg23
S'8.00'
p853
sg25
S'SF'
p854
sg27
S'38.00'
p855
sg29
S'27.00'
p856
sg31
S'0.00'
p857
sg33
S'31.50'
p858
sg35
S'ESPERANZA'
p859
sg37
S'559.00'
p860
sg39
S'1342.00'
p861
ssg41
(dp862
g43
S'24.60'
p863
sg45
S'18.10'
p864
sg47
S'26.90'
p865
sg49
S'19.80'
p866
sg51
S'31.90'
p867
sg53
S'65.00'
p868
sg55
S'60.90'
p869
sg57
S'24.50'
p870
sg25
S'SF'
p871
sg60
g223
sg62
S'38.00'
p872
sg64
S'23.20'
p873
sg66
S'101.00'
p874
sg68
S'16.90'
p875
sg70
S'0.00'
p876
sg72
S'31.50'
p877
sg74
S'35.40'
p878
sg76
g841
sssS'LA PLATA (AERO)'
p879
(dp880
g3
(dp881
g5
S'9.70'
p882
sg7
S'5.50'
p883
sg9
S'1.00'
p884
sg11
S'6.90'
p885
sg13
S'10.40'
p886
sg15
S'15.00'
p887
sg17
S'1668.00'
p888
sg19
S'82.00'
p889
sg21
S'57.90'
p890
sg23
S'5.20'
p891
sg25
S'BAP'
p892
sg27
S'23.00'
p893
sg29
S'59.00'
p894
sg31
S'37.00'
p895
sg33
S'35.00'
p896
sg35
S'LA PLATA (AERO)'
p897
sg37
S'1178.00'
p898
sg39
S'2251.00'
p899
ssg41
(dp900
g43
S'21.70'
p901
sg45
S'15.80'
p902
sg47
S'24.80'
p903
sg49
S'18.10'
p904
sg51
S'27.90'
p905
sg53
S'70.00'
p906
sg55
S'57.90'
p907
sg57
S'21.40'
p908
sg25
S'BAP'
p909
sg60
g108
sg62
S'23.00'
p910
sg64
S'21.30'
p911
sg66
S'79.00'
p912
sg68
S'15.50'
p913
sg70
S'50.00'
p914
sg72
S'35.00'
p915
sg74
S'31.40'
p916
sg76
g879
sssS'RIO GALLEGO'
p917
(dp918
g3
(dp919
g5
S'1.70'
p920
sg7
S'-1.60'
p921
sg9
S'-6.10'
p922
sg11
S'-1.50'
p923
sg13
S'5.70'
p924
sg15
S'5.30'
p925
sg17
S'4541.00'
p926
sg19
S'81.00'
p927
sg21
S'69.30'
p928
sg23
S'-2.80'
p929
sg25
S'SC'
p930
sg27
S'17.00'
p931
sg29
S'13.00'
p932
sg31
S'34.00'
p933
sg33
S'51.60'
p934
sg35
S'RIO GALLEGO'
p935
sg37
S'3811.00'
p936
sg39
S'5271.00'
p937
ssg41
(dp938
g43
S'12.60'
p939
sg45
S'6.90'
p940
sg47
S'19.00'
p941
sg49
S'8.00'
p942
sg51
S'18.50'
p943
sg53
S'56.00'
p944
sg55
S'69.30'
p945
sg57
S'12.20'
p946
sg25
S'SC'
p947
sg60
g61
sg62
S'17.00'
p948
sg64
S'14.30'
p949
sg66
S'22.00'
p950
sg68
S'3.20'
p951
sg70
S'27.00'
p952
sg72
S'51.60'
p953
sg74
S'22.00'
p954
sg76
g917
sssS'CATEDRAL 2000'
p955
(dp956
g3
(dp957
g5
S'-2.70'
p958
sg7
S'-4.90'
p959
sg9
S'-9.40'
p960
sg11
S'-5.00'
p961
sg13
S'4.40'
p962
sg15
S'-0.40'
p963
sg17
S'6441.00'
p964
sg19
S'86.00'
p965
sg21
S'71.60'
p966
sg23
S'-7.20'
p967
sg25
S'RN'
p968
sg27
S'1955.00'
p969
sg29
S'231.00'
p970
sg31
S'30.00'
p971
sg33
S'41.30'
p972
sg35
S'CATEDRAL 2000'
p973
sg37
S'5711.00'
p974
sg39
S'7171.00'
p975
ssg41
(dp976
g43
S'6.90'
p977
sg45
S'2.70'
p978
sg47
S'15.60'
p979
sg49
S'6.70'
p980
sg51
S'11.90'
p981
sg53
S'70.00'
p982
sg55
S'71.60'
p983
sg57
S'6.80'
p984
sg25
S'RN'
p985
sg60
g61
sg62
S'1955.00'
p986
sg64
S'10.30'
p987
sg66
S'63.00'
p988
sg68
S'0.90'
p989
sg70
S'64.00'
p990
sg72
S'41.30'
p991
sg74
S'15.40'
p992
sg76
g955
sssS'LAGO ARGENTINO'
p993
(dp994
g3
(dp995
g5
S'1.60'
p996
sg7
S'-2.00'
p997
sg9
S'-6.50'
p998
sg11
S'-3.30'
p999
sg13
S'4.90'
p1000
sg15
S'5.60'
p1001
sg17
S'4512.00'
p1002
sg19
S'72.00'
p1003
sg21
S'72.30'
p1004
sg23
S'-2.90'
p1005
sg25
S'SC'
p1006
sg27
S'220.00'
p1007
sg29
S'26.00'
p1008
sg31
S'38.00'
p1009
sg33
S'50.30'
p1010
sg35
S'LAGO ARGENTINO'
p1011
sg37
S'3782.00'
p1012
sg39
S'5242.00'
p1013
ssg41
(dp1014
g43
S'12.70'
p1015
sg45
S'7.20'
p1016
sg47
S'19.10'
p1017
sg49
S'6.30'
p1018
sg51
S'18.30'
p1019
sg53
S'44.00'
p1020
sg55
S'72.30'
p1021
sg57
S'12.30'
p1022
sg25
S'SC'
p1023
sg60
g61
sg62
S'220.00'
p1024
sg64
S'14.50'
p1025
sg66
S'15.00'
p1026
sg68
S'0.00'
p1027
sg70
S'51.00'
p1028
sg72
S'50.30'
p1029
sg74
S'21.80'
p1030
sg76
g993
sssS'CASTELAR'
p1031
(dp1032
g3
(dp1033
g5
S'10.50'
p1034
sg7
S'5.90'
p1035
sg9
S'1.40'
p1036
sg11
S'6.80'
p1037
sg13
S'10.40'
p1038
sg15
S'15.90'
p1039
sg17
S'1467.00'
p1040
sg19
S'78.00'
p1041
sg21
S'58.70'
p1042
sg23
S'6.00'
p1043
sg25
S'BAP'
p1044
sg27
S'22.00'
p1045
sg29
S'55.00'
p1046
sg31
S'50.00'
p1047
sg33
S'34.70'
p1048
sg35
S'CASTELAR'
p1049
sg37
S'1019.00'
p1050
sg39
S'2009.00'
p1051
ssg41
(dp1052
g43
S'22.70'
p1053
sg45
S'16.50'
p1054
sg47
S'25.40'
p1055
sg49
S'17.60'
p1056
sg51
S'29.00'
p1057
sg53
S'64.00'
p1058
sg55
S'58.70'
p1059
sg57
S'22.20'
p1060
sg25
S'BAP'
p1061
sg60
g108
sg62
S'22.00'
p1062
sg64
S'22.00'
p1063
sg66
S'95.00'
p1064
sg68
S'15.00'
p1065
sg70
S'69.00'
p1066
sg72
S'34.70'
p1067
sg74
S'32.50'
p1068
sg76
g1031
sssS'MALARGUE'
p1069
(dp1070
g3
(dp1071
g5
S'4.30'
p1072
sg7
S'-2.10'
p1073
sg9
S'-6.60'
p1074
sg11
S'-2.80'
p1075
sg13
S'5.20'
p1076
sg15
S'11.80'
p1077
sg17
S'3045.00'
p1078
sg19
S'65.00'
p1079
sg21
S'69.60'
p1080
sg23
S'-0.20'
p1081
sg25
S'MZ'
p1082
sg27
S'1423.00'
p1083
sg29
S'20.00'
p1084
sg31
S'50.00'
p1085
sg33
S'35.50'
p1086
sg35
S'MALARGUE'
p1087
sg37
S'2357.00'
p1088
sg39
S'3775.00'
p1089
ssg41
(dp1090
g43
S'18.70'
p1091
sg45
S'9.70'
p1092
sg47
S'22.80'
p1093
sg49
S'10.30'
p1094
sg51
S'27.10'
p1095
sg53
S'49.00'
p1096
sg55
S'69.60'
p1097
sg57
S'17.90'
p1098
sg25
S'MZ'
p1099
sg60
g61
sg62
S'1423.00'
p1100
sg64
S'18.00'
p1101
sg66
S'17.00'
p1102
sg68
S'6.60'
p1103
sg70
S'71.00'
p1104
sg72
S'35.50'
p1105
sg74
S'30.60'
p1106
sg76
g1069
sssS'MENDOZA (AERO)'
p1107
(dp1108
g3
(dp1109
g5
S'8.30'
p1110
sg7
S'1.70'
p1111
sg9
S'-2.80'
p1112
sg11
S'0.00'
p1113
sg13
S'6.40'
p1114
sg15
S'16.80'
p1115
sg17
S'1556.00'
p1116
sg19
S'60.00'
p1117
sg21
S'68.80'
p1118
sg23
S'3.80'
p1119
sg25
S'MZ'
p1120
sg27
S'704.00'
p1121
sg29
S'2.00'
p1122
sg31
S'61.00'
p1123
sg33
S'32.80'
p1124
sg35
S'MENDOZA (AERO)'
p1125
sg37
S'1128.00'
p1126
sg39
S'2040.00'
p1127
ssg41
(dp1128
g43
S'24.20'
p1129
sg45
S'16.90'
p1130
sg47
S'26.40'
p1131
sg49
S'14.60'
p1132
sg51
S'31.70'
p1133
sg53
S'50.00'
p1134
sg55
S'68.80'
p1135
sg57
S'23.80'
p1136
sg25
S'MZ'
p1137
sg60
g61
sg62
S'704.00'
p1138
sg64
S'22.70'
p1139
sg66
S'23.00'
p1140
sg68
S'12.00'
p1141
sg70
S'66.00'
p1142
sg72
S'32.80'
p1143
sg74
S'35.20'
p1144
sg76
g1107
sssS'CHAMICAL'
p1145
(dp1146
g3
(dp1147
g5
S'12.60'
p1148
sg7
S'6.00'
p1149
sg9
S'1.50'
p1150
sg11
S'3.60'
p1151
sg13
S'8.50'
p1152
sg15
S'19.70'
p1153
sg17
S'832.00'
p1154
sg19
S'58.00'
p1155
sg21
S'66.30'
p1156
sg23
S'8.10'
p1157
sg25
S'LR'
p1158
sg27
S'461.00'
p1159
sg29
S'4.00'
p1160
sg31
S'38.00'
p1161
sg33
S'30.40'
p1162
sg35
S'CHAMICAL'
p1163
sg37
S'526.00'
p1164
sg39
S'1221.00'
p1165
ssg41
(dp1166
g43
S'25.90'
p1167
sg45
S'19.30'
p1168
sg47
S'27.60'
p1169
sg49
S'17.20'
p1170
sg51
S'33.10'
p1171
sg53
S'54.00'
p1172
sg55
S'66.30'
p1173
sg57
S'25.70'
p1174
sg25
S'LR'
p1175
sg60
g108
sg62
S'461.00'
p1176
sg64
S'24.20'
p1177
sg66
S'67.00'
p1178
sg68
S'14.50'
p1179
sg70
S'50.00'
p1180
sg72
S'30.40'
p1181
sg74
S'36.60'
p1182
sg76
g1145
sssS'BALCARCE'
p1183
(dp1184
g3
(dp1185
g5
S'8.10'
p1186
sg7
S'3.90'
p1187
sg9
S'-0.60'
p1188
sg11
S'5.60'
p1189
sg13
S'9.40'
p1190
sg15
S'13.10'
p1191
sg17
S'2225.00'
p1192
sg19
S'85.00'
p1193
sg21
S'58.30'
p1194
sg23
S'3.60'
p1195
sg25
S'BAP'
p1196
sg27
S'130.00'
p1197
sg29
S'53.00'
p1198
sg31
S'0.00'
p1199
sg33
S'37.80'
p1200
sg35
S'BALCARCE'
p1201
sg37
S'1669.00'
p1202
sg39
S'2947.00'
p1203
ssg41
(dp1204
g43
S'19.10'
p1205
sg45
S'12.90'
p1206
sg47
S'23.50'
p1207
sg49
S'16.30'
p1208
sg51
S'26.60'
p1209
sg53
S'74.00'
p1210
sg55
S'58.30'
p1211
sg57
S'19.20'
p1212
sg25
S'BAP'
p1213
sg60
g108
sg62
S'130.00'
p1214
sg64
S'18.90'
p1215
sg66
S'109.00'
p1216
sg68
S'13.70'
p1217
sg70
S'0.00'
p1218
sg72
S'37.80'
p1219
sg74
S'30.10'
p1220
sg76
g1183
sssS'LAS LAJAS'
p1221
(dp1222
g3
(dp1223
g5
S'6.00'
p1224
sg7
S'-0.90'
p1225
sg9
S'-5.40'
p1226
sg11
S'0.60'
p1227
sg13
S'6.60'
p1228
sg15
S'12.70'
p1229
sg17
S'2804.00'
p1230
sg19
S'69.00'
p1231
sg21
S'70.40'
p1232
sg23
S'1.50'
p1233
sg25
S'NQ'
p1234
sg27
S'713.00'
p1235
sg29
S'27.00'
p1236
sg31
S'0.00'
p1237
sg33
S'38.50'
p1238
sg35
S'LAS LAJAS'
p1239
sg37
S'2151.00'
p1240
sg39
S'3534.00'
p1241
ssg41
(dp1242
g43
S'18.70'
p1243
sg45
S'9.60'
p1244
sg47
S'22.80'
p1245
sg49
S'10.60'
p1246
sg51
S'27.00'
p1247
sg53
S'49.00'
p1248
sg55
S'70.40'
p1249
sg57
S'17.80'
p1250
sg25
S'NQ'
p1251
sg60
g61
sg62
S'713.00'
p1252
sg64
S'18.00'
p1253
sg66
S'11.00'
p1254
sg68
S'7.30'
p1255
sg70
S'0.00'
p1256
sg72
S'38.50'
p1257
sg74
S'30.50'
p1258
sg76
g1221
sssS'DIQUE LA VINA'
p1259
(dp1260
g3
(dp1261
g5
S'10.70'
p1262
sg7
S'4.30'
p1263
sg9
S'-0.20'
p1264
sg11
S'2.70'
p1265
sg13
S'7.60'
p1266
sg15
S'18.30'
p1267
sg17
S'1247.00'
p1268
sg19
S'61.00'
p1269
sg21
S'65.00'
p1270
sg23
S'6.20'
p1271
sg25
S'CD'
p1272
sg27
S'838.00'
p1273
sg29
S'10.00'
p1274
sg31
S'0.00'
p1275
sg33
S'31.90'
p1276
sg35
S'DIQUE LA VINA'
p1277
sg37
S'819.00'
p1278
sg39
S'1756.00'
p1279
ssg41
(dp1280
g43
S'22.40'
p1281
sg45
S'15.20'
p1282
sg47
S'25.40'
p1283
sg49
S'16.60'
p1284
sg51
S'30.00'
p1285
sg53
S'62.00'
p1286
sg55
S'65.00'
p1287
sg57
S'22.10'
p1288
sg25
S'CD'
p1289
sg60
g108
sg62
S'838.00'
p1290
sg64
S'21.30'
p1291
sg66
S'103.00'
p1292
sg68
S'14.20'
p1293
sg70
S'0.00'
p1294
sg72
S'31.90'
p1295
sg74
S'33.50'
p1296
sg76
g1259
sssS'LAS BRENAS'
p1297
(dp1298
g3
(dp1299
g5
S'15.30'
p1300
sg7
S'9.50'
p1301
sg9
S'5.00'
p1302
sg11
S'8.80'
p1303
sg13
S'12.20'
p1304
sg15
S'22.80'
p1305
sg17
S'387.00'
p1306
sg19
S'67.00'
p1307
sg21
S'61.10'
p1308
sg23
S'10.80'
p1309
sg25
S'CHC'
p1310
sg27
S'102.00'
p1311
sg29
S'19.00'
p1312
sg31
S'58.00'
p1313
sg33
S'27.10'
p1314
sg35
S'LAS BRENAS'
p1315
sg37
S'170.00'
p1316
sg39
S'707.00'
p1317
ssg41
(dp1318
g43
S'26.00'
p1319
sg45
S'20.00'
p1320
sg47
S'27.90'
p1321
sg49
S'21.40'
p1322
sg51
S'33.50'
p1323
sg53
S'64.00'
p1324
sg55
S'61.10'
p1325
sg57
S'26.20'
p1326
sg25
S'CHC'
p1327
sg60
g223
sg62
S'102.00'
p1328
sg64
S'24.40'
p1329
sg66
S'133.00'
p1330
sg68
S'18.10'
p1331
sg70
S'70.00'
p1332
sg72
S'27.10'
p1333
sg74
S'37.00'
p1334
sg76
g1297
sssS'COMODORO RIVADAVIA'
p1335
(dp1336
g3
(dp1337
g5
S'7.10'
p1338
sg7
S'3.40'
p1339
sg9
S'-1.10'
p1340
sg11
S'-1.40'
p1341
sg13
S'5.70'
p1342
sg15
S'11.40'
p1343
sg17
S'2522.00'
p1344
sg19
S'58.00'
p1345
sg21
S'67.50'
p1346
sg23
S'2.60'
p1347
sg25
S'CHB'
p1348
sg27
S'61.00'
p1349
sg29
S'22.00'
p1350
sg31
S'41.00'
p1351
sg33
S'45.80'
p1352
sg35
S'COMODORO RIVADAVIA'
p1353
sg37
S'1854.00'
p1354
sg39
S'3252.00'
p1355
ssg41
(dp1356
g43
S'18.20'
p1357
sg45
S'12.50'
p1358
sg47
S'22.70'
p1359
sg49
S'8.00'
p1360
sg51
S'24.60'
p1361
sg53
S'40.00'
p1362
sg55
S'67.50'
p1363
sg57
S'18.10'
p1364
sg25
S'CHB'
p1365
sg60
g453
sg62
S'61.00'
p1366
sg64
S'18.50'
p1367
sg66
S'13.00'
p1368
sg68
S'3.00'
p1369
sg70
S'47.00'
p1370
sg72
S'45.80'
p1371
sg74
S'28.10'
p1372
sg76
g1335
sssS'RIO CUARTO'
p1373
(dp1374
g3
(dp1375
g5
S'10.00'
p1376
sg7
S'4.80'
p1377
sg9
S'0.30'
p1378
sg11
S'2.30'
p1379
sg13
S'7.90'
p1380
sg15
S'17.10'
p1381
sg17
S'1341.00'
p1382
sg19
S'64.00'
p1383
sg21
S'64.30'
p1384
sg23
S'5.50'
p1385
sg25
S'CD'
p1386
sg27
S'421.00'
p1387
sg29
S'11.00'
p1388
sg31
S'57.00'
p1389
sg33
S'33.10'
p1390
sg35
S'RIO CUARTO'
p1391
sg37
S'912.00'
p1392
sg39
S'1874.00'
p1393
ssg41
(dp1394
g43
S'22.10'
p1395
sg45
S'16.40'
p1396
sg47
S'25.40'
p1397
sg49
S'16.20'
p1398
sg51
S'29.10'
p1399
sg53
S'63.00'
p1400
sg55
S'64.30'
p1401
sg57
S'22.20'
p1402
sg25
S'CD'
p1403
sg60
g108
sg62
S'421.00'
p1404
sg64
S'21.50'
p1405
sg66
S'113.00'
p1406
sg68
S'13.70'
p1407
sg70
S'64.00'
p1408
sg72
S'33.10'
p1409
sg74
S'32.60'
p1410
sg76
g1373
sssS'CHOELE CHOEL'
p1411
(dp1412
g3
(dp1413
g5
S'8.40'
p1414
sg7
S'2.80'
p1415
sg9
S'-1.70'
p1416
sg11
S'0.20'
p1417
sg13
S'6.50'
p1418
sg15
S'15.20'
p1419
sg17
S'1748.00'
p1420
sg19
S'61.00'
p1421
sg21
S'65.70'
p1422
sg23
S'3.90'
p1423
sg25
S'RN'
p1424
sg27
S'131.00'
p1425
sg29
S'15.00'
p1426
sg31
S'0.00'
p1427
sg33
S'39.30'
p1428
sg35
S'CHOELE CHOEL'
p1429
sg37
S'1318.00'
p1430
sg39
S'2281.00'
p1431
ssg41
(dp1432
g43
S'23.00'
p1433
sg45
S'15.10'
p1434
sg47
S'25.80'
p1435
sg49
S'10.50'
p1436
sg51
S'31.20'
p1437
sg53
S'40.00'
p1438
sg55
S'65.70'
p1439
sg57
S'22.70'
p1440
sg25
S'RN'
p1441
sg60
g61
sg62
S'131.00'
p1442
sg64
S'21.50'
p1443
sg66
S'22.00'
p1444
sg68
S'7.00'
p1445
sg70
S'0.00'
p1446
sg72
S'39.30'
p1447
sg74
S'34.70'
p1448
sg76
g1411
sssS'HUMAHUACA'
p1449
(dp1450
g3
(dp1451
g5
S'8.40'
p1452
sg7
S'-2.60'
p1453
sg9
S'-7.10'
p1454
sg11
S'-5.00'
p1455
sg13
S'4.40'
p1456
sg15
S'20.20'
p1457
sg17
S'2672.00'
p1458
sg19
S'44.00'
p1459
sg21
S'65.40'
p1460
sg23
S'3.90'
p1461
sg25
S'JJ'
p1462
sg27
S'2980.00'
p1463
sg29
S'0.00'
p1464
sg31
S'0.00'
p1465
sg33
S'23.20'
p1466
sg35
S'HUMAHUACA'
p1467
sg37
S'1942.00'
p1468
sg39
S'3402.00'
p1469
ssg41
(dp1470
g43
S'14.80'
p1471
sg45
S'8.20'
p1472
sg47
S'21.20'
p1473
sg49
S'9.90'
p1474
sg51
S'23.60'
p1475
sg53
S'63.00'
p1476
sg55
S'65.40'
p1477
sg57
S'15.40'
p1478
sg25
S'JJ'
p1479
sg60
g376
sg62
S'2980.00'
p1480
sg64
S'15.30'
p1481
sg66
S'41.00'
p1482
sg68
S'6.70'
p1483
sg70
S'0.00'
p1484
sg72
S'23.20'
p1485
sg74
S'27.10'
p1486
sg76
g1449
sssS'SANTA ROSA'
p1487
(dp1488
g3
(dp1489
g5
S'8.20'
p1490
sg7
S'1.80'
p1491
sg9
S'-2.70'
p1492
sg11
S'3.40'
p1493
sg13
S'8.30'
p1494
sg15
S'15.90'
p1495
sg17
S'1802.00'
p1496
sg19
S'76.00'
p1497
sg21
S'64.30'
p1498
sg23
S'3.70'
p1499
sg25
S'LP'
p1500
sg27
S'189.00'
p1501
sg29
S'17.00'
p1502
sg31
S'48.00'
p1503
sg33
S'36.60'
p1504
sg35
S'SANTA ROSA'
p1505
sg37
S'1331.00'
p1506
sg39
S'2364.00'
p1507
ssg41
(dp1508
g43
S'22.30'
p1509
sg45
S'13.80'
p1510
sg47
S'25.10'
p1511
sg49
S'15.40'
p1512
sg51
S'30.30'
p1513
sg53
S'59.00'
p1514
sg55
S'64.30'
p1515
sg57
S'21.60'
p1516
sg25
S'LP'
p1517
sg60
g108
sg62
S'189.00'
p1518
sg64
S'21.00'
p1519
sg66
S'74.00'
p1520
sg68
S'12.90'
p1521
sg70
S'68.00'
p1522
sg72
S'36.60'
p1523
sg74
S'33.80'
p1524
sg76
g1487
sssS'BORDENAVE'
p1525
(dp1526
g3
(dp1527
g5
S'7.50'
p1528
sg7
S'2.20'
p1529
sg9
S'-2.30'
p1530
sg11
S'2.80'
p1531
sg13
S'8.00'
p1532
sg15
S'13.80'
p1533
sg17
S'2098.00'
p1534
sg19
S'74.00'
p1535
sg21
S'63.00'
p1536
sg23
S'3.00'
p1537
sg25
S'BAP'
p1538
sg27
S'212.00'
p1539
sg29
S'22.00'
p1540
sg31
S'48.00'
p1541
sg33
S'37.90'
p1542
sg35
S'BORDENAVE'
p1543
sg37
S'1571.00'
p1544
sg39
S'2708.00'
p1545
ssg41
(dp1546
g43
S'21.30'
p1547
sg45
S'13.70'
p1548
sg47
S'24.70'
p1549
sg49
S'13.40'
p1550
sg51
S'29.20'
p1551
sg53
S'54.00'
p1552
sg55
S'63.00'
p1553
sg57
S'21.00'
p1554
sg25
S'BAP'
p1555
sg60
g108
sg62
S'212.00'
p1556
sg64
S'20.40'
p1557
sg66
S'61.00'
p1558
sg68
S'10.60'
p1559
sg70
S'71.00'
p1560
sg72
S'37.90'
p1561
sg74
S'32.70'
p1562
sg76
g1525
sssS'IGUAZU'
p1563
(dp1564
g3
(dp1565
g5
S'15.40'
p1566
sg7
S'9.40'
p1567
sg9
S'4.90'
p1568
sg11
S'13.00'
p1569
sg13
S'15.50'
p1570
sg15
S'23.30'
p1571
sg17
S'411.00'
p1572
sg19
S'85.00'
p1573
sg21
S'54.50'
p1574
sg23
S'10.90'
p1575
sg25
S'MS'
p1576
sg27
S'180.00'
p1577
sg29
S'104.00'
p1578
sg31
S'37.00'
p1579
sg33
S'25.70'
p1580
sg35
S'IGUAZU'
p1581
sg37
S'153.00'
p1582
sg39
S'790.00'
p1583
ssg41
(dp1584
g43
S'24.70'
p1585
sg45
S'18.80'
p1586
sg47
S'27.20'
p1587
sg49
S'24.90'
p1588
sg51
S'32.30'
p1589
sg53
S'80.00'
p1590
sg55
S'54.50'
p1591
sg57
S'25.00'
p1592
sg25
S'MS'
p1593
sg60
g223
sg62
S'180.00'
p1594
sg64
S'23.30'
p1595
sg66
S'152.00'
p1596
sg68
S'20.80'
p1597
sg70
S'47.00'
p1598
sg72
S'25.70'
p1599
sg74
S'35.80'
p1600
sg76
g1563
sssS'BARDAS BLANCAS'
p1601
(dp1602
g3
(dp1603
g5
S'5.20'
p1604
sg7
S'-1.20'
p1605
sg9
S'-5.70'
p1606
sg11
S'-2.00'
p1607
sg13
S'5.50'
p1608
sg15
S'11.40'
p1609
sg17
S'2891.00'
p1610
sg19
S'63.00'
p1611
sg21
S'69.80'
p1612
sg23
S'0.70'
p1613
sg25
S'MZ'
p1614
sg27
S'1450.00'
p1615
sg29
S'0.00'
p1616
sg31
S'0.00'
p1617
sg33
S'35.90'
p1618
sg35
S'BARDAS BLANCAS'
p1619
sg37
S'2240.00'
p1620
sg39
S'3621.00'
p1621
ssg41
(dp1622
g43
S'18.50'
p1623
sg45
S'10.70'
p1624
sg47
S'23.10'
p1625
sg49
S'6.80'
p1626
sg51
S'27.00'
p1627
sg53
S'36.00'
p1628
sg55
S'69.80'
p1629
sg57
S'18.40'
p1630
sg25
S'MZ'
p1631
sg60
g61
sg62
S'1450.00'
p1632
sg64
S'18.00'
p1633
sg66
S'0.00'
p1634
sg68
S'0.30'
p1635
sg70
S'0.00'
p1636
sg72
S'35.90'
p1637
sg74
S'30.50'
p1638
sg76
g1601
sssS'NECOCHEA '
p1639
(dp1640
g3
(dp1641
g5
S'8.90'
p1642
sg7
S'5.10'
p1643
sg9
S'0.60'
p1644
sg11
S'5.30'
p1645
sg13
S'9.20'
p1646
sg15
S'13.20'
p1647
sg17
S'2023.00'
p1648
sg19
S'80.00'
p1649
sg21
S'58.70'
p1650
sg23
S'4.40'
p1651
sg25
S'BAP'
p1652
sg27
S'8.00'
p1653
sg29
S'81.00'
p1654
sg31
S'0.00'
p1655
sg33
S'38.60'
p1656
sg35
S'NECOCHEA '
p1657
sg37
S'1465.00'
p1658
sg39
S'2712.00'
p1659
ssg41
(dp1660
g43
S'19.40'
p1661
sg45
S'14.80'
p1662
sg47
S'23.70'
p1663
sg49
S'16.10'
p1664
sg51
S'25.70'
p1665
sg53
S'72.00'
p1666
sg55
S'58.70'
p1667
sg57
S'19.70'
p1668
sg25
S'BAP'
p1669
sg60
g108
sg62
S'8.00'
p1670
sg64
S'19.70'
p1671
sg66
S'93.00'
p1672
sg68
S'13.80'
p1673
sg70
S'0.00'
p1674
sg72
S'38.60'
p1675
sg74
S'29.20'
p1676
sg76
g1639
sssS'CIPOLLETTI'
p1677
(dp1678
g3
(dp1679
g5
S'7.10'
p1680
sg7
S'1.20'
p1681
sg9
S'-3.30'
p1682
sg11
S'-1.20'
p1683
sg13
S'5.90'
p1684
sg15
S'14.60'
p1685
sg17
S'2019.00'
p1686
sg19
S'62.00'
p1687
sg21
S'68.00'
p1688
sg23
S'2.60'
p1689
sg25
S'RN'
p1690
sg27
S'265.00'
p1691
sg29
S'10.00'
p1692
sg31
S'0.00'
p1693
sg33
S'39.00'
p1694
sg35
S'CIPOLLETTI'
p1695
sg37
S'1531.00'
p1696
sg39
S'2591.00'
p1697
ssg41
(dp1698
g43
S'21.40'
p1699
sg45
S'14.20'
p1700
sg47
S'25.10'
p1701
sg49
S'10.40'
p1702
sg51
S'29.90'
p1703
sg53
S'41.00'
p1704
sg55
S'68.00'
p1705
sg57
S'21.50'
p1706
sg25
S'RN'
p1707
sg60
g61
sg62
S'265.00'
p1708
sg64
S'20.40'
p1709
sg66
S'11.00'
p1710
sg68
S'6.50'
p1711
sg70
S'0.00'
p1712
sg72
S'39.00'
p1713
sg74
S'33.40'
p1714
sg76
g1677
sssS'COLONIA ALVEAR'
p1715
(dp1716
g3
(dp1717
g5
S'8.50'
p1718
sg7
S'1.50'
p1719
sg9
S'-3.00'
p1720
sg11
S'1.30'
p1721
sg13
S'7.20'
p1722
sg15
S'17.40'
p1723
sg17
S'1605.00'
p1724
sg19
S'65.00'
p1725
sg21
S'67.70'
p1726
sg23
S'4.00'
p1727
sg25
S'MZ'
p1728
sg27
S'465.00'
p1729
sg29
S'6.00'
p1730
sg31
S'0.00'
p1731
sg33
S'35.00'
p1732
sg35
S'COLONIA ALVEAR'
p1733
sg37
S'1169.00'
p1734
sg39
S'2135.00'
p1735
ssg41
(dp1736
g43
S'22.70'
p1737
sg45
S'14.60'
p1738
sg47
S'25.90'
p1739
sg49
S'13.90'
p1740
sg51
S'32.00'
p1741
sg53
S'53.00'
p1742
sg55
S'67.70'
p1743
sg57
S'22.80'
p1744
sg25
S'MZ'
p1745
sg60
g61
sg62
S'465.00'
p1746
sg64
S'21.10'
p1747
sg66
S'36.00'
p1748
sg68
S'10.90'
p1749
sg70
S'0.00'
p1750
sg72
S'35.00'
p1751
sg74
S'35.50'
p1752
sg76
g1715
sssS'ALTO DEL COMEDERO'
p1753
(dp1754
g3
(dp1755
g5
S'11.50'
p1756
sg7
S'6.00'
p1757
sg9
S'1.50'
p1758
sg11
S'5.10'
p1759
sg13
S'9.30'
p1760
sg15
S'19.90'
p1761
sg17
S'1084.00'
p1762
sg19
S'70.00'
p1763
sg21
S'65.30'
p1764
sg23
S'7.00'
p1765
sg25
S'JJ'
p1766
sg27
S'1253.00'
p1767
sg29
S'4.00'
p1768
sg31
S'59.00'
p1769
sg33
S'24.20'
p1770
sg35
S'ALTO DEL COMEDERO'
p1771
sg37
S'665.00'
p1772
sg39
S'1685.00'
p1773
ssg41
(dp1774
g43
S'20.20'
p1775
sg45
S'16.00'
p1776
sg47
S'24.40'
p1777
sg49
S'18.70'
p1778
sg51
S'26.50'
p1779
sg53
S'80.00'
p1780
sg55
S'65.30'
p1781
sg57
S'20.80'
p1782
sg25
S'JJ'
p1783
sg60
g376
sg62
S'1253.00'
p1784
sg64
S'20.40'
p1785
sg66
S'183.00'
p1786
sg68
S'16.30'
p1787
sg70
S'44.00'
p1788
sg72
S'24.20'
p1789
sg74
S'30.00'
p1790
sg76
g1753
sssS'EL BOLSON'
p1791
(dp1792
g3
(dp1793
g5
S'3.90'
p1794
sg7
S'-0.10'
p1795
sg9
S'-4.60'
p1796
sg11
S'1.70'
p1797
sg13
S'7.10'
p1798
sg15
S'9.40'
p1799
sg17
S'3705.00'
p1800
sg19
S'84.00'
p1801
sg21
S'71.60'
p1802
sg23
S'-0.60'
p1803
sg25
S'RN'
p1804
sg27
S'310.00'
p1805
sg29
S'138.00'
p1806
sg31
S'0.00'
p1807
sg33
S'41.90'
p1808
sg35
S'EL BOLSON'
p1809
sg37
S'2975.00'
p1810
sg39
S'4435.00'
p1811
ssg41
(dp1812
g43
S'15.00'
p1813
sg45
S'6.50'
p1814
sg47
S'20.50'
p1815
sg49
S'11.30'
p1816
sg51
S'23.10'
p1817
sg53
S'66.00'
p1818
sg55
S'71.60'
p1819
sg57
S'14.30'
p1820
sg25
S'RN'
p1821
sg60
g61
sg62
S'310.00'
p1822
sg64
S'15.30'
p1823
sg66
S'37.00'
p1824
sg68
S'8.50'
p1825
sg70
S'0.00'
p1826
sg72
S'41.90'
p1827
sg74
S'26.60'
p1828
sg76
g1791
sssS'TRELEW'
p1829
(dp1830
g3
(dp1831
g5
S'6.80'
p1832
sg7
S'1.80'
p1833
sg9
S'-2.70'
p1834
sg11
S'-1.50'
p1835
sg13
S'5.80'
p1836
sg15
S'13.10'
p1837
sg17
S'2240.00'
p1838
sg19
S'60.00'
p1839
sg21
S'65.30'
p1840
sg23
S'2.30'
p1841
sg25
S'CHB'
p1842
sg27
S'39.00'
p1843
sg29
S'14.00'
p1844
sg31
S'49.00'
p1845
sg33
S'43.20'
p1846
sg35
S'TRELEW'
p1847
sg37
S'1673.00'
p1848
sg39
S'2932.00'
p1849
ssg41
(dp1850
g43
S'19.70'
p1851
sg45
S'13.10'
p1852
sg47
S'23.90'
p1853
sg49
S'8.00'
p1854
sg51
S'27.40'
p1855
sg53
S'38.00'
p1856
sg55
S'65.30'
p1857
sg57
S'19.70'
p1858
sg25
S'CHB'
p1859
sg60
g453
sg62
S'39.00'
p1860
sg64
S'19.30'
p1861
sg66
S'11.00'
p1862
sg68
S'2.90'
p1863
sg70
S'66.00'
p1864
sg72
S'43.20'
p1865
sg74
S'30.90'
p1866
sg76
g1829
sssS'PUERTO DESEADO'
p1867
(dp1868
g3
(dp1869
g5
S'4.30'
p1870
sg7
S'0.80'
p1871
sg9
S'-3.70'
p1872
sg11
S'0.00'
p1873
sg13
S'6.30'
p1874
sg15
S'8.20'
p1875
sg17
S'3627.00'
p1876
sg19
S'75.00'
p1877
sg21
S'65.90'
p1878
sg23
S'-0.20'
p1879
sg25
S'SC'
p1880
sg27
S'79.00'
p1881
sg29
S'20.00'
p1882
sg31
S'34.00'
p1883
sg33
S'47.70'
p1884
sg35
S'PUERTO DESEADO'
p1885
sg37
S'2897.00'
p1886
sg39
S'4357.00'
p1887
ssg41
(dp1888
g43
S'13.90'
p1889
sg45
S'6.90'
p1890
sg47
S'19.60'
p1891
sg49
S'5.50'
p1892
sg51
S'20.10'
p1893
sg53
S'35.00'
p1894
sg55
S'65.90'
p1895
sg57
S'13.00'
p1896
sg25
S'SC'
p1897
sg60
g61
sg62
S'79.00'
p1898
sg64
S'15.00'
p1899
sg66
S'9.00'
p1900
sg68
S'-4.40'
p1901
sg70
S'62.00'
p1902
sg72
S'47.70'
p1903
sg74
S'23.60'
p1904
sg76
g1867
sssS'CORDOBA'
p1905
(dp1906
g3
(dp1907
g5
S'12.00'
p1908
sg7
S'5.80'
p1909
sg9
S'1.30'
p1910
sg11
S'3.50'
p1911
sg13
S'8.50'
p1912
sg15
S'19.50'
p1913
sg17
S'991.00'
p1914
sg19
S'60.00'
p1915
sg21
S'64.20'
p1916
sg23
S'7.50'
p1917
sg25
S'CD'
p1918
sg27
S'425.00'
p1919
sg29
S'10.00'
p1920
sg31
S'57.00'
p1921
sg33
S'31.40'
p1922
sg35
S'CORDOBA'
p1923
sg37
S'608.00'
p1924
sg39
S'1449.00'
p1925
ssg41
(dp1926
g43
S'23.40'
p1927
sg45
S'17.10'
p1928
sg47
S'26.20'
p1929
sg49
S'17.10'
p1930
sg51
S'30.70'
p1931
sg53
S'61.00'
p1932
sg55
S'64.20'
p1933
sg57
S'23.40'
p1934
sg25
S'CD'
p1935
sg60
g108
sg62
S'425.00'
p1936
sg64
S'22.30'
p1937
sg66
S'107.00'
p1938
sg68
S'14.50'
p1939
sg70
S'62.00'
p1940
sg72
S'31.40'
p1941
sg74
S'34.20'
p1942
sg76
g1905
sssS'TRES ARROYOS'
p1943
(dp1944
g3
(dp1945
g5
S'8.20'
p1946
sg7
S'3.80'
p1947
sg9
S'-0.70'
p1948
sg11
S'4.00'
p1949
sg13
S'8.60'
p1950
sg15
S'13.80'
p1951
sg17
S'2039.00'
p1952
sg19
S'77.00'
p1953
sg21
S'60.30'
p1954
sg23
S'3.70'
p1955
sg25
S'BAP'
p1956
sg27
S'109.00'
p1957
sg29
S'47.00'
p1958
sg31
S'0.00'
p1959
sg33
S'38.40'
p1960
sg35
S'TRES ARROYOS'
p1961
sg37
S'1506.00'
p1962
sg39
S'2659.00'
p1963
ssg41
(dp1964
g43
S'20.30'
p1965
sg45
S'13.70'
p1966
sg47
S'24.60'
p1967
sg49
S'13.30'
p1968
sg51
S'28.90'
p1969
sg53
S'59.00'
p1970
sg55
S'60.30'
p1971
sg57
S'20.80'
p1972
sg25
S'BAP'
p1973
sg60
g108
sg62
S'109.00'
p1974
sg64
S'19.60'
p1975
sg66
S'83.00'
p1976
sg68
S'10.60'
p1977
sg70
S'0.00'
p1978
sg72
S'38.40'
p1979
sg74
S'32.40'
p1980
sg76
g1943
sssS'PARANA '
p1981
(dp1982
g3
(dp1983
g5
S'12.50'
p1984
sg7
S'8.00'
p1985
sg9
S'3.50'
p1986
sg11
S'7.20'
p1987
sg13
S'10.80'
p1988
sg15
S'17.70'
p1989
sg17
S'979.00'
p1990
sg19
S'72.00'
p1991
sg21
S'60.50'
p1992
sg23
S'8.00'
p1993
sg25
S'ER'
p1994
sg27
S'110.00'
p1995
sg29
S'29.00'
p1996
sg31
S'55.00'
p1997
sg33
S'31.80'
p1998
sg35
S'PARANA '
p1999
sg37
S'591.00'
p2000
sg39
S'1429.00'
p2001
ssg41
(dp2002
g43
S'24.10'
p2003
sg45
S'18.30'
p2004
sg47
S'26.40'
p2005
sg49
S'18.90'
p2006
sg51
S'30.30'
p2007
sg53
S'63.00'
p2008
sg55
S'60.50'
p2009
sg57
S'23.80'
p2010
sg25
S'ER'
p2011
sg60
g376
sg62
S'110.00'
p2012
sg64
S'23.10'
p2013
sg66
S'103.00'
p2014
sg68
S'16.10'
p2015
sg70
S'68.00'
p2016
sg72
S'31.80'
p2017
sg74
S'33.80'
p2018
sg76
g1981
sssS'VILLA MARIA'
p2019
(dp2020
g3
(dp2021
g5
S'12.20'
p2022
sg7
S'4.20'
p2023
sg9
S'-0.30'
p2024
sg11
S'5.50'
p2025
sg13
S'9.60'
p2026
sg15
S'20.00'
p2027
sg17
S'1078.00'
p2028
sg19
S'67.00'
p2029
sg21
S'63.70'
p2030
sg23
S'7.70'
p2031
sg25
S'CD'
p2032
sg27
S'341.00'
p2033
sg29
S'18.00'
p2034
sg31
S'0.00'
p2035
sg33
S'29.90'
p2036
sg35
S'VILLA MARIA'
p2037
sg37
S'681.00'
p2038
sg39
S'1531.00'
p2039
ssg41
(dp2040
g43
S'24.30'
p2041
sg45
S'16.20'
p2042
sg47
S'26.30'
p2043
sg49
S'19.60'
p2044
sg51
S'31.70'
p2045
sg53
S'67.00'
p2046
sg55
S'63.70'
p2047
sg57
S'23.50'
p2048
sg25
S'CD'
p2049
sg60
g108
sg62
S'341.00'
p2050
sg64
S'22.70'
p2051
sg66
S'123.00'
p2052
sg68
S'16.90'
p2053
sg70
S'0.00'
p2054
sg72
S'29.90'
p2055
sg74
S'35.20'
p2056
sg76
g2019
sssS'SAN LUIS'
p2057
(dp2058
g3
(dp2059
g5
S'10.20'
p2060
sg7
S'3.80'
p2061
sg9
S'-0.70'
p2062
sg11
S'1.00'
p2063
sg13
S'7.00'
p2064
sg15
S'12.90'
p2065
sg17
S'1297.00'
p2066
sg19
S'57.00'
p2067
sg21
S'66.40'
p2068
sg23
S'5.70'
p2069
sg25
S'SL'
p2070
sg27
S'713.00'
p2071
sg29
S'7.00'
p2072
sg31
S'66.00'
p2073
sg33
S'33.30'
p2074
sg35
S'SAN LUIS'
p2075
sg37
S'871.00'
p2076
sg39
S'1793.00'
p2077
ssg41
(dp2078
g43
S'23.80'
p2079
sg45
S'16.80'
p2080
sg47
S'26.10'
p2081
sg49
S'14.40'
p2082
sg51
S'30.60'
p2083
sg53
S'51.00'
p2084
sg55
S'66.40'
p2085
sg57
S'23.20'
p2086
sg25
S'SL'
p2087
sg60
g376
sg62
S'713.00'
p2088
sg64
S'22.60'
p2089
sg66
S'86.00'
p2090
sg68
S'11.80'
p2091
sg70
S'71.00'
p2092
sg72
S'33.30'
p2093
sg74
S'34.10'
p2094
sg76
g2057
sssS'EMBALSE'
p2095
(dp2096
g3
(dp2097
g5
S'10.80'
p2098
sg7
S'5.20'
p2099
sg9
S'0.70'
p2100
sg11
S'4.30'
p2101
sg13
S'8.80'
p2102
sg15
S'18.00'
p2103
sg17
S'1200.00'
p2104
sg19
S'68.00'
p2105
sg21
S'64.40'
p2106
sg23
S'6.30'
p2107
sg25
S'CD'
p2108
sg27
S'548.00'
p2109
sg29
S'10.00'
p2110
sg31
S'56.00'
p2111
sg33
S'32.20'
p2112
sg35
S'EMBALSE'
p2113
sg37
S'782.00'
p2114
sg39
S'1687.00'
p2115
ssg41
(dp2116
g43
S'22.10'
p2117
sg45
S'17.00'
p2118
sg47
S'25.80'
p2119
sg49
S'17.60'
p2120
sg51
S'29.70'
p2121
sg53
S'67.00'
p2122
sg55
S'64.40'
p2123
sg57
S'22.90'
p2124
sg25
S'CD'
p2125
sg60
g108
sg62
S'548.00'
p2126
sg64
S'21.40'
p2127
sg66
S'101.00'
p2128
sg68
S'15.00'
p2129
sg70
S'62.00'
p2130
sg72
S'32.20'
p2131
sg74
S'33.20'
p2132
sg76
g2095
sssS'ANGEL GALLARDO'
p2133
(dp2134
g3
(dp2135
g5
S'12.60'
p2136
sg7
S'6.90'
p2137
sg9
S'2.40'
p2138
sg11
S'7.90'
p2139
sg13
S'11.30'
p2140
sg15
S'18.60'
p2141
sg17
S'967.00'
p2142
sg19
S'74.00'
p2143
sg21
S'60.70'
p2144
sg23
S'8.10'
p2145
sg25
S'SF'
p2146
sg27
S'18.00'
p2147
sg29
S'31.00'
p2148
sg31
S'0.00'
p2149
sg33
S'31.60'
p2150
sg35
S'ANGEL GALLARDO'
p2151
sg37
S'597.00'
p2152
sg39
S'1409.00'
p2153
ssg41
(dp2154
g43
S'24.10'
p2155
sg45
S'17.90'
p2156
sg47
S'26.40'
p2157
sg49
S'19.80'
p2158
sg51
S'30.80'
p2159
sg53
S'66.00'
p2160
sg55
S'60.70'
p2161
sg57
S'23.90'
p2162
sg25
S'SF'
p2163
sg60
g223
sg62
S'18.00'
p2164
sg64
S'22.90'
p2165
sg66
S'105.00'
p2166
sg68
S'16.70'
p2167
sg70
S'0.00'
p2168
sg72
S'31.60'
p2169
sg74
S'34.30'
p2170
sg76
g2133
sssS'PUNTA INDIO'
p2171
(dp2172
g3
(dp2173
g5
S'9.90'
p2174
sg7
S'5.40'
p2175
sg9
S'0.90'
p2176
sg11
S'7.20'
p2177
sg13
S'10.60'
p2178
sg15
S'15.00'
p2179
sg17
S'1677.00'
p2180
sg19
S'85.00'
p2181
sg21
S'57.30'
p2182
sg23
S'5.40'
p2183
sg25
S'BAP'
p2184
sg27
S'22.00'
p2185
sg29
S'65.00'
p2186
sg31
S'47.00'
p2187
sg33
S'35.40'
p2188
sg35
S'PUNTA INDIO'
p2189
sg37
S'1185.00'
p2190
sg39
S'2265.00'
p2191
ssg41
(dp2192
g43
S'21.80'
p2193
sg45
S'15.80'
p2194
sg47
S'24.80'
p2195
sg49
S'18.70'
p2196
sg51
S'27.70'
p2197
sg53
S'73.00'
p2198
sg55
S'57.30'
p2199
sg57
S'21.30'
p2200
sg25
S'BAP'
p2201
sg60
g108
sg62
S'22.00'
p2202
sg64
S'21.40'
p2203
sg66
S'73.00'
p2204
sg68
S'16.00'
p2205
sg70
S'68.00'
p2206
sg72
S'35.40'
p2207
sg74
S'31.20'
p2208
sg76
g2171
sssS'SAN ANTONIO OESTE'
p2209
(dp2210
g3
(dp2211
g5
S'8.90'
p2212
sg7
S'3.80'
p2213
sg9
S'-0.70'
p2214
sg11
S'2.20'
p2215
sg13
S'7.40'
p2216
sg15
S'14.50'
p2217
sg17
S'1780.00'
p2218
sg19
S'67.00'
p2219
sg21
S'65.00'
p2220
sg23
S'4.40'
p2221
sg25
S'RN'
p2222
sg27
S'7.00'
p2223
sg29
S'16.00'
p2224
sg31
S'47.00'
p2225
sg33
S'40.70'
p2226
sg35
S'SAN ANTONIO OESTE'
p2227
sg37
S'1312.00'
p2228
sg39
S'2341.00'
p2229
ssg41
(dp2230
g43
S'21.70'
p2231
sg45
S'15.50'
p2232
sg47
S'25.20'
p2233
sg49
S'12.10'
p2234
sg51
S'29.20'
p2235
sg53
S'50.00'
p2236
sg55
S'65.00'
p2237
sg57
S'21.90'
p2238
sg25
S'RN'
p2239
sg60
g61
sg62
S'7.00'
p2240
sg64
S'21.00'
p2241
sg66
S'19.00'
p2242
sg68
S'9.00'
p2243
sg70
S'68.00'
p2244
sg72
S'40.70'
p2245
sg74
S'32.70'
p2246
sg76
g2209
sssS'LA BANDA'
p2247
(dp2248
g3
(dp2249
g5
S'14.00'
p2250
sg7
S'7.10'
p2251
sg9
S'2.60'
p2252
sg11
S'7.80'
p2253
sg13
S'11.20'
p2254
sg15
S'21.90'
p2255
sg17
S'596.00'
p2256
sg19
S'69.00'
p2257
sg21
S'64.30'
p2258
sg23
S'9.50'
p2259
sg25
S'SE'
p2260
sg27
S'187.00'
p2261
sg29
S'6.00'
p2262
sg31
S'53.00'
p2263
sg33
S'27.80'
p2264
sg35
S'LA BANDA'
p2265
sg37
S'325.00'
p2266
sg39
S'915.00'
p2267
ssg41
(dp2268
g43
S'25.90'
p2269
sg45
S'19.50'
p2270
sg47
S'27.80'
p2271
sg49
S'22.50'
p2272
sg51
S'33.60'
p2273
sg53
S'68.00'
p2274
sg55
S'64.30'
p2275
sg57
S'26.10'
p2276
sg25
S'SE'
p2277
sg60
g376
sg62
S'187.00'
p2278
sg64
S'24.20'
p2279
sg66
S'92.00'
p2280
sg68
S'19.10'
p2281
sg70
S'60.00'
p2282
sg72
S'27.80'
p2283
sg74
S'37.10'
p2284
sg76
g2247
sssS'DIQUE PISCOHUASI'
p2285
(dp2286
g3
(dp2287
g5
S'11.20'
p2288
sg7
S'4.50'
p2289
sg9
S'0.00'
p2290
sg11
S'4.00'
p2291
sg13
S'8.90'
p2292
sg15
S'19.40'
p2293
sg17
S'1112.00'
p2294
sg19
S'66.00'
p2295
sg21
S'64.00'
p2296
sg23
S'6.70'
p2297
sg25
S'CD'
p2298
sg27
S'600.00'
p2299
sg29
S'14.00'
p2300
sg31
S'0.00'
p2301
sg33
S'30.30'
p2302
sg35
S'DIQUE PISCOHUASI'
p2303
sg37
S'702.00'
p2304
sg39
S'1619.00'
p2305
ssg41
(dp2306
g43
S'22.50'
p2307
sg45
S'15.50'
p2308
sg47
S'25.60'
p2309
sg49
S'17.70'
p2310
sg51
S'30.30'
p2311
sg53
S'66.00'
p2312
sg55
S'64.00'
p2313
sg57
S'22.40'
p2314
sg25
S'CD'
p2315
sg60
g108
sg62
S'600.00'
p2316
sg64
S'21.40'
p2317
sg66
S'112.00'
p2318
sg68
S'15.10'
p2319
sg70
S'0.00'
p2320
sg72
S'30.30'
p2321
sg74
S'33.80'
p2322
sg76
g2285
sssS'LOS HORNOS'
p2323
(dp2324
g3
(dp2325
g5
S'10.20'
p2326
sg7
S'5.50'
p2327
sg9
S'1.00'
p2328
sg11
S'7.50'
p2329
sg13
S'10.80'
p2330
sg15
S'14.90'
p2331
sg17
S'1636.00'
p2332
sg19
S'83.00'
p2333
sg21
S'58.00'
p2334
sg23
S'5.70'
p2335
sg25
S'BAP'
p2336
sg27
S'15.00'
p2337
sg29
S'67.00'
p2338
sg31
S'0.00'
p2339
sg33
S'34.90'
p2340
sg35
S'LOS HORNOS'
p2341
sg37
S'1148.00'
p2342
sg39
S'2197.00'
p2343
ssg41
(dp2344
g43
S'22.30'
p2345
sg45
S'16.00'
p2346
sg47
S'25.20'
p2347
sg49
S'19.10'
p2348
sg51
S'28.80'
p2349
sg53
S'71.00'
p2350
sg55
S'58.00'
p2351
sg57
S'21.90'
p2352
sg25
S'BAP'
p2353
sg60
g108
sg62
S'15.00'
p2354
sg64
S'21.60'
p2355
sg66
S'89.00'
p2356
sg68
S'16.40'
p2357
sg70
S'0.00'
p2358
sg72
S'34.90'
p2359
sg74
S'32.30'
p2360
sg76
g2323
sssS'SIERRA COLORADA'
p2361
(dp2362
g3
(dp2363
g5
S'4.50'
p2364
sg7
S'-1.70'
p2365
sg9
S'-6.20'
p2366
sg11
S'-2.70'
p2367
sg13
S'5.30'
p2368
sg15
S'11.10'
p2369
sg17
S'3009.00'
p2370
sg19
S'65.00'
p2371
sg21
S'67.80'
p2372
sg23
S'0.00'
p2373
sg25
S'RN'
p2374
sg27
S'665.00'
p2375
sg29
S'19.00'
p2376
sg31
S'0.00'
p2377
sg33
S'40.60'
p2378
sg35
S'SIERRA COLORADA'
p2379
sg37
S'2394.00'
p2380
sg39
S'3739.00'
p2381
ssg41
(dp2382
g43
S'19.40'
p2383
sg45
S'10.60'
p2384
sg47
S'23.40'
p2385
sg49
S'7.50'
p2386
sg51
S'28.00'
p2387
sg53
S'36.00'
p2388
sg55
S'67.80'
p2389
sg57
S'18.80'
p2390
sg25
S'RN'
p2391
sg60
g61
sg62
S'665.00'
p2392
sg64
S'18.50'
p2393
sg66
S'18.00'
p2394
sg68
S'1.60'
p2395
sg70
S'0.00'
p2396
sg72
S'40.60'
p2397
sg74
S'31.50'
p2398
sg76
g2361
sssS'PARANA (AERO)'
p2399
(dp2400
g3
(dp2401
g5
S'12.20'
p2402
sg7
S'7.00'
p2403
sg9
S'2.50'
p2404
sg11
S'7.80'
p2405
sg13
S'11.30'
p2406
sg15
S'18.30'
p2407
sg17
S'1039.00'
p2408
sg19
S'77.00'
p2409
sg21
S'60.50'
p2410
sg23
S'7.70'
p2411
sg25
S'ER'
p2412
sg27
S'62.00'
p2413
sg29
S'32.00'
p2414
sg31
S'55.00'
p2415
sg33
S'31.80'
p2416
sg35
S'PARANA (AERO)'
p2417
sg37
S'632.00'
p2418
sg39
S'1488.00'
p2419
ssg41
(dp2420
g43
S'24.30'
p2421
sg45
S'17.50'
p2422
sg47
S'26.40'
p2423
sg49
S'18.90'
p2424
sg51
S'30.90'
p2425
sg53
S'63.00'
p2426
sg55
S'60.50'
p2427
sg57
S'23.70'
p2428
sg25
S'ER'
p2429
sg60
g376
sg62
S'62.00'
p2430
sg64
S'23.00'
p2431
sg66
S'107.00'
p2432
sg68
S'162.00'
p2433
sg70
S'69.00'
p2434
sg72
S'31.80'
p2435
sg74
S'34.40'
p2436
sg76
g2399
sssS'UNION'
p2437
(dp2438
g3
(dp2439
g5
S'8.40'
p2440
sg7
S'1.00'
p2441
sg9
S'-3.50'
p2442
sg11
S'4.20'
p2443
sg13
S'8.60'
p2444
sg15
S'16.80'
p2445
sg17
S'1769.00'
p2446
sg19
S'76.00'
p2447
sg21
S'66.00'
p2448
sg23
S'3.90'
p2449
sg25
S'SL'
p2450
sg27
S'372.00'
p2451
sg29
S'10.00'
p2452
sg31
S'0.00'
p2453
sg33
S'35.20'
p2454
sg35
S'UNION'
p2455
sg37
S'1323.00'
p2456
sg39
S'2326.00'
p2457
ssg41
(dp2458
g43
S'23.30'
p2459
sg45
S'14.00'
p2460
sg47
S'25.50'
p2461
sg49
S'17.50'
p2462
sg51
S'31.20'
p2463
sg53
S'63.00'
p2464
sg55
S'66.00'
p2465
sg57
S'22.10'
p2466
sg25
S'SL'
p2467
sg60
g376
sg62
S'372.00'
p2468
sg64
S'21.60'
p2469
sg66
S'80.00'
p2470
sg68
S'14.80'
p2471
sg70
S'0.00'
p2472
sg72
S'35.20'
p2473
sg74
S'34.70'
p2474
sg76
g2437
sssS'EL PALOMAR'
p2475
(dp2476
g3
(dp2477
g5
S'1.50'
p2478
sg7
S'6.20'
p2479
sg9
S'1.70'
p2480
sg11
S'6.60'
p2481
sg13
S'10.20'
p2482
sg15
S'15.80'
p2483
sg17
S'1439.00'
p2484
sg19
S'79.00'
p2485
sg21
S'58.60'
p2486
sg23
S'6.00'
p2487
sg25
S'BAP'
p2488
sg27
S'21.00'
p2489
sg29
S'60.00'
p2490
sg31
S'38.00'
p2491
sg33
S'34.60'
p2492
sg35
S'EL PALOMAR'
p2493
sg37
S'995.00'
p2494
sg39
S'1977.00'
p2495
ssg41
(dp2496
g43
S'22.70'
p2497
sg45
S'16.80'
p2498
sg47
S'25.50'
p2499
sg49
S'17.60'
p2500
sg51
S'29.00'
p2501
sg53
S'65.00'
p2502
sg55
S'58.60'
p2503
sg57
S'22.40'
p2504
sg25
S'BAP'
p2505
sg60
g108
sg62
S'21.00'
p2506
sg64
S'22.00'
p2507
sg66
S'100.00'
p2508
sg68
S'15.00'
p2509
sg70
S'52.00'
p2510
sg72
S'34.60'
p2511
sg74
S'32.50'
p2512
sg76
g2475
sssS'ARGERICH'
p2513
(dp2514
g3
(dp2515
g5
S'8.60'
p2516
sg7
S'2.60'
p2517
sg9
S'-1.90'
p2518
sg11
S'3.30'
p2519
sg13
S'8.20'
p2520
sg15
S'15.10'
p2521
sg17
S'1862.00'
p2522
sg19
S'71.00'
p2523
sg21
S'62.60'
p2524
sg23
S'4.10'
p2525
sg25
S'BAP'
p2526
sg27
S'10.00'
p2527
sg29
S'31.00'
p2528
sg31
S'0.00'
p2529
sg33
S'38.80'
p2530
sg35
S'ARGERICH'
p2531
sg37
S'1382.00'
p2532
sg39
S'2429.00'
p2533
ssg41
(dp2534
g43
S'22.50'
p2535
sg45
S'14.00'
p2536
sg47
S'25.30'
p2537
sg49
S'13.90'
p2538
sg51
S'30.70'
p2539
sg53
S'52.00'
p2540
sg55
S'62.60'
p2541
sg57
S'21.90'
p2542
sg25
S'BAP'
p2543
sg60
g108
sg62
S'10.00'
p2544
sg64
S'21.10'
p2545
sg66
S'66.00'
p2546
sg68
S'11.10'
p2547
sg70
S'0.00'
p2548
sg72
S'38.80'
p2549
sg74
S'34.20'
p2550
sg76
g2513
sssS'MARCOS JUAREZ'
p2551
(dp2552
g3
(dp2553
g5
S'10.40'
p2554
sg7
S'4.80'
p2555
sg9
S'0.30'
p2556
sg11
S'5.70'
p2557
sg13
S'9.90'
p2558
sg15
S'17.90'
p2559
sg17
S'1265.00'
p2560
sg19
S'76.00'
p2561
sg21
S'62.20'
p2562
sg23
S'5.90'
p2563
sg25
S'CD'
p2564
sg27
S'114.00'
p2565
sg29
S'17.00'
p2566
sg31
S'44.00'
p2567
sg33
S'32.70'
p2568
sg35
S'MARCOS JUAREZ'
p2569
sg37
S'842.00'
p2570
sg39
S'1756.00'
p2571
ssg41
(dp2572
g43
S'23.10'
p2573
sg45
S'16.00'
p2574
sg47
S'25.90'
p2575
sg49
S'18.60'
p2576
sg51
S'30.80'
p2577
sg53
S'67.00'
p2578
sg55
S'62.20'
p2579
sg57
S'22.90'
p2580
sg25
S'CD'
p2581
sg60
g108
sg62
S'114.00'
p2582
sg64
S'21.90'
p2583
sg66
S'102.00'
p2584
sg68
S'15.90'
p2585
sg70
S'61.00'
p2586
sg72
S'32.70'
p2587
sg74
S'34.30'
p2588
sg76
g2551
sssS'CERES'
p2589
(dp2590
g3
(dp2591
g5
S'13.10'
p2592
sg7
S'7.20'
p2593
sg9
S'2.70'
p2594
sg11
S'7.80'
p2595
sg13
S'11.40'
p2596
sg15
S'20.40'
p2597
sg17
S'745.00'
p2598
sg19
S'74.00'
p2599
sg21
S'62.00'
p2600
sg23
S'8.60'
p2601
sg25
S'SF'
p2602
sg27
S'88.00'
p2603
sg29
S'22.00'
p2604
sg31
S'55.00'
p2605
sg33
S'29.90'
p2606
sg35
S'CERES'
p2607
sg37
S'434.00'
p2608
sg39
S'1167.00'
p2609
ssg41
(dp2610
g43
S'25.10'
p2611
sg45
S'18.30'
p2612
sg47
S'27.00'
p2613
sg49
S'20.30'
p2614
sg51
S'32.10'
p2615
sg53
S'66.00'
p2616
sg55
S'62.00'
p2617
sg57
S'24.70'
p2618
sg25
S'SF'
p2619
sg60
g223
sg62
S'88.00'
p2620
sg64
S'23.60'
p2621
sg66
S'112.00'
p2622
sg68
S'17.30'
p2623
sg70
S'66.00'
p2624
sg72
S'29.90'
p2625
sg74
S'35.60'
p2626
sg76
g2589
sssS'MORON'
p2627
(dp2628
g3
(dp2629
g5
S'10.50'
p2630
sg7
S'6.10'
p2631
sg9
S'1.60'
p2632
sg11
S'6.90'
p2633
sg13
S'10.50'
p2634
sg15
S'15.90'
p2635
sg17
S'1433.00'
p2636
sg19
S'81.00'
p2637
sg21
S'58.60'
p2638
sg23
S'6.00'
p2639
sg25
S'BAP'
p2640
sg27
S'24.00'
p2641
sg29
S'55.00'
p2642
sg31
S'43.00'
p2643
sg33
S'34.70'
p2644
sg35
S'MORON'
p2645
sg37
S'993.00'
p2646
sg39
S'1970.00'
p2647
ssg41
(dp2648
g43
S'22.90'
p2649
sg45
S'16.90'
p2650
sg47
S'25.60'
p2651
sg49
S'17.90'
p2652
sg51
S'29.20'
p2653
sg53
S'65.00'
p2654
sg55
S'58.60'
p2655
sg57
S'22.60'
p2656
sg25
S'BAP'
p2657
sg60
g108
sg62
S'24.00'
p2658
sg64
S'22.10'
p2659
sg66
S'96.00'
p2660
sg68
S'15.30'
p2661
sg70
S'57.00'
p2662
sg72
S'34.70'
p2663
sg74
S'32.70'
p2664
sg76
g2627
sssS'LAPRIDA'
p2665
(dp2666
g3
(dp2667
g5
S'7.90'
p2668
sg7
S'2.40'
p2669
sg9
S'-2.10'
p2670
sg11
S'2.00'
p2671
sg13
S'7.60'
p2672
sg15
S'13.30'
p2673
sg17
S'2101.00'
p2674
sg19
S'68.00'
p2675
sg21
S'60.80'
p2676
sg23
S'3.40'
p2677
sg25
S'BAP'
p2678
sg27
S'212.00'
p2679
sg29
S'40.00'
p2680
sg31
S'0.00'
p2681
sg33
S'37.60'
p2682
sg35
S'LAPRIDA'
p2683
sg37
S'1638.00'
p2684
sg39
S'2807.00'
p2685
ssg41
(dp2686
g43
S'20.60'
p2687
sg45
S'14.10'
p2688
sg47
S'24.60'
p2689
sg49
S'15.60'
p2690
sg51
S'28.50'
p2691
sg53
S'63.00'
p2692
sg55
S'60.80'
p2693
sg57
S'20.80'
p2694
sg25
S'BAP'
p2695
sg60
g108
sg62
S'212.00'
p2696
sg64
S'20.00'
p2697
sg66
S'76.00'
p2698
sg68
S'12.90'
p2699
sg70
S'0.00'
p2700
sg72
S'37.60'
p2701
sg74
S'32.00'
p2702
sg76
g2665
sssS'JUJUY'
p2703
(dp2704
g3
(dp2705
g5
S'11.40'
p2706
sg7
S'4.70'
p2707
sg9
S'0.20'
p2708
sg11
S'5.30'
p2709
sg13
S'9.30'
p2710
sg15
S'20.30'
p2711
sg17
S'1063.00'
p2712
sg19
S'41.00'
p2713
sg21
S'65.30'
p2714
sg23
S'6.90'
p2715
sg25
S'JJ'
p2716
sg27
S'1303.00'
p2717
sg29
S'7.00'
p2718
sg31
S'0.00'
p2719
sg33
S'24.20'
p2720
sg35
S'JUJUY'
p2721
sg37
S'651.00'
p2722
sg39
S'1630.00'
p2723
ssg41
(dp2724
g43
S'21.00'
p2725
sg45
S'15.30'
p2726
sg47
S'24.60'
p2727
sg49
S'19.10'
p2728
sg51
S'27.70'
p2729
sg53
S'78.00'
p2730
sg55
S'65.30'
p2731
sg57
S'21.00'
p2732
sg25
S'JJ'
p2733
sg60
g376
sg62
S'1303.00'
p2734
sg64
S'20.60'
p2735
sg66
S'167.00'
p2736
sg68
S'16.70'
p2737
sg70
S'0.00'
p2738
sg72
S'24.20'
p2739
sg74
S'31.20'
p2740
sg76
g2703
sssS'ROQUE SAENZ PENA'
p2741
(dp2742
g3
(dp2743
g5
S'15.70'
p2744
sg7
S'9.70'
p2745
sg9
S'5.20'
p2746
sg11
S'10.50'
p2747
sg13
S'13.50'
p2748
sg15
S'22.90'
p2749
sg17
S'357.00'
p2750
sg19
S'72.00'
p2751
sg21
S'60.50'
p2752
sg23
S'11.20'
p2753
sg25
S'CHC'
p2754
sg27
S'90.00'
p2755
sg29
S'20.00'
p2756
sg31
S'57.00'
p2757
sg33
S'26.90'
p2758
sg35
S'ROQUE SAENZ PENA'
p2759
sg37
S'154.00'
p2760
sg39
S'676.00'
p2761
ssg41
(dp2762
g43
S'26.20'
p2763
sg45
S'19.70'
p2764
sg47
S'28.10'
p2765
sg49
S'22.80'
p2766
sg51
S'34.10'
p2767
sg53
S'67.00'
p2768
sg55
S'60.50'
p2769
sg57
S'26.40'
p2770
sg25
S'CHC'
p2771
sg60
g223
sg62
S'90.00'
p2772
sg64
S'24.30'
p2773
sg66
S'118.00'
p2774
sg68
S'19.20'
p2775
sg70
S'69.00'
p2776
sg72
S'26.90'
p2777
sg74
S'37.60'
p2778
sg76
g2741
sssS'ESQUEL'
p2779
(dp2780
g3
(dp2781
g5
S'2.20'
p2782
sg7
S'-2.50'
p2783
sg9
S'-7.00'
p2784
sg11
S'-2.00'
p2785
sg13
S'5.40'
p2786
sg15
S'7.00'
p2787
sg17
S'4413.00'
p2788
sg19
S'76.00'
p2789
sg21
S'71.40'
p2790
sg23
S'-2.30'
p2791
sg25
S'CHB'
p2792
sg27
S'785.00'
p2793
sg29
S'77.00'
p2794
sg31
S'0.00'
p2795
sg33
S'42.90'
p2796
sg35
S'ESQUEL'
p2797
sg37
S'3683.00'
p2798
sg39
S'5143.00'
p2799
ssg41
(dp2800
g43
S'13.40'
p2801
sg45
S'6.50'
p2802
sg47
S'19.50'
p2803
sg49
S'7.20'
p2804
sg51
S'20.00'
p2805
sg53
S'51.00'
p2806
sg55
S'71.40'
p2807
sg57
S'12.80'
p2808
sg25
S'CHB'
p2809
sg60
g453
sg62
S'785.00'
p2810
sg64
S'14.60'
p2811
sg66
S'22.00'
p2812
sg68
S'1.90'
p2813
sg70
S'0.00'
p2814
sg72
S'42.90'
p2815
sg74
S'23.50'
p2816
sg76
g2779
sssS'LOPEZ JUAREZ '
p2817
(dp2818
g3
(dp2819
g5
S'7.10'
p2820
sg7
S'2.30'
p2821
sg9
S'-2.20'
p2822
sg11
S'3.60'
p2823
sg13
S'8.30'
p2824
sg15
S'12.80'
p2825
sg17
S'5440.00'
p2826
sg19
S'80.00'
p2827
sg21
S'59.60'
p2828
sg23
S'2.60'
p2829
sg25
S'BAP'
p2830
sg27
S'233.00'
p2831
sg29
S'46.00'
p2832
sg31
S'46.00'
p2833
sg33
S'37.50'
p2834
sg35
S'LOPEZ JUAREZ '
p2835
sg37
S'1844.00'
p2836
sg39
S'3159.00'
p2837
ssg41
(dp2838
g43
S'19.20'
p2839
sg45
S'12.00'
p2840
sg47
S'23.50'
p2841
sg49
S'14.00'
p2842
sg51
S'27.30'
p2843
sg53
S'65.00'
p2844
sg55
S'59.60'
p2845
sg57
S'19.10'
p2846
sg25
S'BAP'
p2847
sg60
g108
sg62
S'233.00'
p2848
sg64
S'18.80'
p2849
sg66
S'82.00'
p2850
sg68
S'11.40'
p2851
sg70
S'64.00'
p2852
sg72
S'37.50'
p2853
sg74
S'30.80'
p2854
sg76
g2817
sssS'CORDOBA (AERO)'
p2855
(dp2856
g3
(dp2857
g5
S'11.30'
p2858
sg7
S'5.00'
p2859
sg9
S'0.50'
p2860
sg11
S'3.60'
p2861
sg13
S'8.60'
p2862
sg15
S'19.10'
p2863
sg17
S'1118.00'
p2864
sg19
S'64.00'
p2865
sg21
S'64.20'
p2866
sg23
S'6.80'
p2867
sg25
S'CD'
p2868
sg27
S'474.00'
p2869
sg29
S'10.00'
p2870
sg31
S'61.00'
p2871
sg33
S'31.30'
p2872
sg35
S'CORDOBA (AERO)'
p2873
sg37
S'703.00'
p2874
sg39
S'1617.00'
p2875
ssg41
(dp2876
g43
S'23.00'
p2877
sg45
S'16.50'
p2878
sg47
S'25.60'
p2879
sg49
S'18.30'
p2880
sg51
S'29.60'
p2881
sg53
S'67.00'
p2882
sg55
S'64.20'
p2883
sg57
S'22.60'
p2884
sg25
S'CD'
p2885
sg60
g108
sg62
S'474.00'
p2886
sg64
S'22.00'
p2887
sg66
S'112.00'
p2888
sg68
S'15.70'
p2889
sg70
S'63.00'
p2890
sg72
S'31.30'
p2891
sg74
S'33.10'
p2892
sg76
g2855
sssS'SAN MART\xc3\x8dN'
p2893
(dp2894
g3
(dp2895
g5
S'7.90'
p2896
sg7
S'1.90'
p2897
sg9
S'-2.60'
p2898
sg11
S'0.40'
p2899
sg13
S'6.60'
p2900
sg15
S'16.80'
p2901
sg17
S'1564.00'
p2902
sg19
S'62.00'
p2903
sg21
S'68.40'
p2904
sg23
S'3.40'
p2905
sg25
S'MZ'
p2906
sg27
S'653.00'
p2907
sg29
S'2.00'
p2908
sg31
S'68.00'
p2909
sg33
S'33.10'
p2910
sg35
S'SAN MARTIN'
p2911
sg37
S'1135.00'
p2912
sg39
S'2081.00'
p2913
ssg41
(dp2914
g43
S'23.10'
p2915
sg45
S'15.70'
p2916
sg47
S'26.10'
p2917
sg49
S'15.30'
p2918
sg51
S'31.70'
p2919
sg53
S'54.00'
p2920
sg55
S'68.40'
p2921
sg57
S'23.20'
p2922
sg25
S'MZ'
p2923
sg60
g61
sg62
S'653.00'
p2924
sg64
S'21.70'
p2925
sg66
S'28.00'
p2926
sg68
S'12.70'
p2927
sg70
S'77.00'
p2928
sg72
S'33.10'
p2929
sg74
S'35.20'
p2930
sg76
g2893
sssS'PUENTE DEL INCA'
p2931
(dp2932
g3
(dp2933
g5
S'0.90'
p2934
sg7
S'-4.80'
p2935
sg9
S'-9.30'
p2936
sg11
S'-10.90'
p2937
sg13
S'3.00'
p2938
sg15
S'6.70'
p2939
sg17
S'4689.00'
p2940
sg19
S'50.00'
p2941
sg21
S'69.90'
p2942
sg23
S'-3.60'
p2943
sg25
S'MZ'
p2944
sg27
S'2720.00'
p2945
sg29
S'57.00'
p2946
sg31
S'50.00'
p2947
sg33
S'32.80'
p2948
sg35
S'PUENTE DEL INCA'
p2949
sg37
S'3959.00'
p2950
sg39
S'5419.00'
p2951
ssg41
(dp2952
g43
S'20.40'
p2953
sg45
S'11.80'
p2954
sg47
S'23.70'
p2955
sg49
S'8.80'
p2956
sg51
S'28.00'
p2957
sg53
S'36.00'
p2958
sg55
S'69.90'
p2959
sg57
S'19.40'
p2960
sg25
S'MZ'
p2961
sg60
g61
sg62
S'2720.00'
p2962
sg64
S'19.50'
p2963
sg66
S'26.00'
p2964
sg68
S'1.70'
p2965
sg70
S'71.00'
p2966
sg72
S'32.80'
p2967
sg74
S'31.50'
p2968
sg76
g2931
sssS'OLIVEROS'
p2969
(dp2970
g3
(dp2971
g5
S'11.10'
p2972
sg7
S'5.80'
p2973
sg9
S'1.30'
p2974
sg11
S'7.60'
p2975
sg13
S'11.10'
p2976
sg15
S'17.30'
p2977
sg17
S'1262.00'
p2978
sg19
S'79.00'
p2979
sg21
S'60.90'
p2980
sg23
S'6.60'
p2981
sg25
S'SF'
p2982
sg27
S'26.00'
p2983
sg29
S'35.00'
p2984
sg31
S'51.00'
p2985
sg33
S'32.60'
p2986
sg35
S'OLIVEROS'
p2987
sg37
S'834.00'
p2988
sg39
S'1763.00'
p2989
ssg41
(dp2990
g43
S'23.30'
p2991
sg45
S'16.50'
p2992
sg47
S'25.80'
p2993
sg49
S'19.90'
p2994
sg51
S'30.20'
p2995
sg53
S'69.00'
p2996
sg55
S'60.90'
p2997
sg57
S'22.90'
p2998
sg25
S'SF'
p2999
sg60
g223
sg62
S'26.00'
p3000
sg64
S'22.20'
p3001
sg66
S'99.00'
p3002
sg68
S'17.00'
p3003
sg70
S'67.00'
p3004
sg72
S'32.60'
p3005
sg74
S'33.70'
p3006
sg76
g2969
sssS'CORRIENTES'
p3007
(dp3008
g3
(dp3009
g5
S'16.90'
p3010
sg7
S'12.10'
p3011
sg9
S'7.00'
p3012
sg11
S'12.00'
p3013
sg13
S'14.70'
p3014
sg15
S'22.70'
p3015
sg17
S'262.00'
p3016
sg19
S'75.00'
p3017
sg21
S'58.80'
p3018
sg23
S'12.40'
p3019
sg25
S'CR'
p3020
sg27
S'60.00'
p3021
sg29
S'42.00'
p3022
sg31
S'0.00'
p3023
sg33
S'27.50'
p3024
sg35
S'CORRIENTES'
p3025
sg37
S'56.00'
p3026
sg39
S'568.00'
p3027
ssg41
(dp3028
g43
S'26.80'
p3029
sg45
S'21.20'
p3030
sg47
S'28.10'
p3031
sg49
S'23.10'
p3032
sg51
S'33.10'
p3033
sg53
S'68.00'
p3034
sg55
S'58.80'
p3035
sg57
S'26.60'
p3036
sg25
S'CR'
p3037
sg60
g376
sg62
S'60.00'
p3038
sg64
S'25.20'
p3039
sg66
S'168.00'
p3040
sg68
S'19.50'
p3041
sg70
S'0.00'
p3042
sg72
S'27.50'
p3043
sg74
S'36.60'
p3044
sg76
g3007
sssS'RESISTENCIA (AEROCLUB)'
p3045
(dp3046
g3
(dp3047
g5
S'16.00'
p3048
sg7
S'11.70'
p3049
sg9
S'7.20'
p3050
sg11
S'11.80'
p3051
sg13
S'14.50'
p3052
sg15
S'22.20'
p3053
sg17
S'326.00'
p3054
sg19
S'77.00'
p3055
sg21
S'59.00'
p3056
sg23
S'11.50'
p3057
sg25
S'CHC'
p3058
sg27
S'51.00'
p3059
sg29
S'39.00'
p3060
sg31
S'0.00'
p3061
sg33
S'27.50'
p3062
sg35
S'RESISTENCIA (AEROCLUB)'
p3063
sg37
S'96.00'
p3064
sg39
S'644.00'
p3065
ssg41
(dp3066
g43
S'26.10'
p3067
sg45
S'21.00'
p3068
sg47
S'27.70'
p3069
sg49
S'23.50'
p3070
sg51
S'31.90'
p3071
sg53
S'70.00'
p3072
sg55
S'59.00'
p3073
sg57
S'25.90'
p3074
sg25
S'CHC'
p3075
sg60
g223
sg62
S'51.00'
p3076
sg64
S'24.90'
p3077
sg66
S'155.00'
p3078
sg68
S'19.70'
p3079
sg70
S'0.00'
p3080
sg72
S'27.50'
p3081
sg74
S'35.40'
p3082
sg76
g3045
sssS'GOYA'
p3083
(dp3084
g3
(dp3085
g5
S'15.20'
p3086
sg7
S'9.10'
p3087
sg9
S'4.60'
p3088
sg11
S'10.90'
p3089
sg13
S'13.70'
p3090
sg15
S'20.80'
p3091
sg17
S'600.00'
p3092
sg19
S'78.00'
p3093
sg21
S'59.30'
p3094
sg23
S'10.70'
p3095
sg25
S'CR'
p3096
sg27
S'36.00'
p3097
sg29
S'40.00'
p3098
sg31
S'0.00'
p3099
sg33
S'29.10'
p3100
sg35
S'GOYA'
p3101
sg37
S'294.00'
p3102
sg39
S'1017.00'
p3103
ssg41
(dp3104
g43
S'26.10'
p3105
sg45
S'18.90'
p3106
sg47
S'27.20'
p3107
sg49
S'23.80'
p3108
sg51
S'32.30'
p3109
sg53
S'71.00'
p3110
sg55
S'59.30'
p3111
sg57
S'25.10'
p3112
sg25
S'CR'
p3113
sg60
g376
sg62
S'36.00'
p3114
sg64
S'24.40'
p3115
sg66
S'126.00'
p3116
sg68
S'19.90'
p3117
sg70
S'0.00'
p3118
sg72
S'29.10'
p3119
sg74
S'35.80'
p3120
sg76
g3083
sssS'GUATRACHE'
p3121
(dp3122
g3
(dp3123
g5
S'8.40'
p3124
sg7
S'2.30'
p3125
sg9
S'-2.20'
p3126
sg11
S'2.90'
p3127
sg13
S'8.00'
p3128
sg15
S'14.20'
p3129
sg17
S'2012.00'
p3130
sg19
S'52.00'
p3131
sg21
S'63.60'
p3132
sg23
S'3.90'
p3133
sg25
S'LP'
p3134
sg27
S'175.00'
p3135
sg29
S'19.00'
p3136
sg31
S'47.00'
p3137
sg33
S'37.60'
p3138
sg35
S'GUATRACHE'
p3139
sg37
S'1505.00'
p3140
sg39
S'2598.00'
p3141
ssg41
(dp3142
g43
S'21.90'
p3143
sg45
S'14.10'
p3144
sg47
S'25.00'
p3145
sg49
S'13.70'
p3146
sg51
S'29.70'
p3147
sg53
S'55.00'
p3148
sg55
S'63.60'
p3149
sg57
S'21.40'
p3150
sg25
S'LP'
p3151
sg60
g108
sg62
S'175.00'
p3152
sg64
S'20.80'
p3153
sg66
S'68.00'
p3154
sg68
S'10.90'
p3155
sg70
S'70.00'
p3156
sg72
S'37.60'
p3157
sg74
S'33.20'
p3158
sg76
g3121
sssS'LABOULAYE'
p3159
(dp3160
g3
(dp3161
g5
S'9.70'
p3162
sg7
S'3.90'
p3163
sg9
S'-0.60'
p3164
sg11
S'3.70'
p3165
sg13
S'8.60'
p3166
sg15
S'17.50'
p3167
sg17
S'1359.00'
p3168
sg19
S'71.00'
p3169
sg21
S'63.40'
p3170
sg23
S'5.20'
p3171
sg25
S'CD'
p3172
sg27
S'138.00'
p3173
sg29
S'44.00'
p3174
sg31
S'53.00'
p3175
sg33
S'34.10'
p3176
sg35
S'LABOULAYE'
p3177
sg37
S'930.00'
p3178
sg39
S'1858.00'
p3179
ssg41
(dp3180
g43
S'23.20'
p3181
sg45
S'16.00'
p3182
sg47
S'26.20'
p3183
sg49
S'16.80'
p3184
sg51
S'31.60'
p3185
sg53
S'62.00'
p3186
sg55
S'63.40'
p3187
sg57
S'23.30'
p3188
sg25
S'CD'
p3189
sg60
g108
sg62
S'138.00'
p3190
sg64
S'21.80'
p3191
sg66
S'93.00'
p3192
sg68
S'14.30'
p3193
sg70
S'68.00'
p3194
sg72
S'34.10'
p3195
sg74
S'35.10'
p3196
sg76
g3159
sssS'MAQUINCAHO'
p3197
(dp3198
g3
(dp3199
g5
S'2.50'
p3200
sg7
S'-3.20'
p3201
sg9
S'-7.70'
p3202
sg11
S'-3.00'
p3203
sg13
S'5.10'
p3204
sg15
S'8.20'
p3205
sg17
S'3885.00'
p3206
sg19
S'70.00'
p3207
sg21
S'68.70'
p3208
sg23
S'-2.00'
p3209
sg25
S'RN'
p3210
sg27
S'888.00'
p3211
sg29
S'14.00'
p3212
sg31
S'0.00'
p3213
sg33
S'41.30'
p3214
sg35
S'MAQUINCAHO'
p3215
sg37
S'3155.00'
p3216
sg39
S'4615.00'
p3217
ssg41
(dp3218
g43
S'16.60'
p3219
sg45
S'7.60'
p3220
sg47
S'21.40'
p3221
sg49
S'7.50'
p3222
sg51
S'24.70'
p3223
sg53
S'42.00'
p3224
sg55
S'68.70'
p3225
sg57
S'15.60'
p3226
sg25
S'RN'
p3227
sg60
g61
sg62
S'888.00'
p3228
sg64
S'16.40'
p3229
sg66
S'12.00'
p3230
sg68
S'2.20'
p3231
sg70
S'0.00'
p3232
sg72
S'41.30'
p3233
sg74
S'28.20'
p3234
sg76
g3197
sssS'JUJUY EL CADILLAL'
p3235
(dp3236
g3
(dp3237
g5
S'13.30'
p3238
sg7
S'6.90'
p3239
sg9
S'2.40'
p3240
sg11
S'5.50'
p3241
sg13
S'9.50'
p3242
sg15
S'21.20'
p3243
sg17
S'701.00'
p3244
sg19
S'63.00'
p3245
sg21
S'65.10'
p3246
sg23
S'8.80'
p3247
sg25
S'JJ'
p3248
sg27
S'905.00'
p3249
sg29
S'2.00'
p3250
sg31
S'57.00'
p3251
sg33
S'24.40'
p3252
sg35
S'JUJUY EL CADILLAL'
p3253
sg37
S'398.00'
p3254
sg39
S'1107.00'
p3255
ssg41
(dp3256
g43
S'23.60'
p3257
sg45
S'17.60'
p3258
sg47
S'26.20'
p3259
sg49
S'19.10'
p3260
sg51
S'30.50'
p3261
sg53
S'68.00'
p3262
sg55
S'65.10'
p3263
sg57
S'23.60'
p3264
sg25
S'JJ'
p3265
sg60
g376
sg62
S'905.00'
p3266
sg64
S'22.60'
p3267
sg66
S'122.00'
p3268
sg68
S'16.50'
p3269
sg70
S'54.00'
p3270
sg72
S'24.40'
p3271
sg74
S'34.00'
p3272
sg76
g3235
sssS'CRISTO REDENTOR'
p3273
(dp3274
g3
(dp3275
g5
S'-6.60'
p3276
sg7
S'-9.80'
p3277
sg9
S'-14.30'
p3278
sg11
S'-14.80'
p3279
sg13
S'2.10'
p3280
sg15
S'-3.20'
p3281
sg17
S'7725.00'
p3282
sg19
S'57.00'
p3283
sg21
S'70.10'
p3284
sg23
S'-11.10'
p3285
sg25
S'MZ'
p3286
sg27
S'3832.00'
p3287
sg29
S'0.00'
p3288
sg31
S'0.00'
p3289
sg33
S'32.80'
p3290
sg35
S'CRISTO REDENTOR'
p3291
sg37
S'6995.00'
p3292
sg39
S'8455.00'
p3293
ssg41
(dp3294
g43
S'3.20'
p3295
sg45
S'-0.90'
p3296
sg47
S'13.50'
p3297
sg49
S'4.30'
p3298
sg51
S'9.00'
p3299
sg53
S'58.00'
p3300
sg55
S'70.10'
p3301
sg57
S'3.60'
p3302
sg25
S'MZ'
p3303
sg60
g61
sg62
S'3832.00'
p3304
sg64
S'7.30'
p3305
sg66
S'0.00'
p3306
sg68
S'-5.80'
p3307
sg70
S'0.00'
p3308
sg72
S'32.80'
p3309
sg74
S'12.50'
p3310
sg76
g3273
sssS'BOLIVAR'
p3311
(dp3312
g3
(dp3313
g5
S'9.50'
p3314
sg7
S'3.80'
p3315
sg9
S'-0.70'
p3316
sg11
S'6.80'
p3317
sg13
S'10.40'
p3318
sg15
S'15.10'
p3319
sg17
S'1765.00'
p3320
sg19
S'83.00'
p3321
sg21
S'61.10'
p3322
sg23
S'5.00'
p3323
sg25
S'BAP'
p3324
sg27
S'93.00'
p3325
sg29
S'41.00'
p3326
sg31
S'0.00'
p3327
sg33
S'36.30'
p3328
sg35
S'BOLIVAR'
p3329
sg37
S'1284.00'
p3330
sg39
S'2337.00'
p3331
ssg41
(dp3332
g43
S'22.40'
p3333
sg45
S'14.40'
p3334
sg47
S'25.10'
p3335
sg49
S'19.70'
p3336
sg51
S'29.80'
p3337
sg53
S'74.00'
p3338
sg55
S'61.10'
p3339
sg57
S'21.60'
p3340
sg25
S'BAP'
p3341
sg60
g108
sg62
S'93.00'
p3342
sg64
S'21.20'
p3343
sg66
S'95.00'
p3344
sg68
S'16.80'
p3345
sg70
S'0.00'
p3346
sg72
S'36.30'
p3347
sg74
S'33.30'
p3348
sg76
g3311
sssS'PERGAMINO'
p3349
(dp3350
g3
(dp3351
g5
S'9.60'
p3352
sg7
S'4.10'
p3353
sg9
S'-0.40'
p3354
sg11
S'6.30'
p3355
sg13
S'10.10'
p3356
sg15
S'15.00'
p3357
sg17
S'1624.00'
p3358
sg19
S'81.00'
p3359
sg21
S'60.60'
p3360
sg23
S'5.10'
p3361
sg25
S'BAP'
p3362
sg27
S'65.00'
p3363
sg29
S'36.00'
p3364
sg31
S'50.00'
p3365
sg33
S'33.90'
p3366
sg35
S'PERGAMINO'
p3367
sg37
S'1165.00'
p3368
sg39
S'2174.00'
p3369
ssg41
(dp3370
g43
S'22.90'
p3371
sg45
S'14.90'
p3372
sg47
S'25.30'
p3373
sg49
S'18.30'
p3374
sg51
S'30.10'
p3375
sg53
S'66.00'
p3376
sg55
S'60.60'
p3377
sg57
S'22.00'
p3378
sg25
S'BAP'
p3379
sg60
g108
sg62
S'65.00'
p3380
sg64
S'21.60'
p3381
sg66
S'90.00'
p3382
sg68
S'15.60'
p3383
sg70
S'68.00'
p3384
sg72
S'33.90'
p3385
sg74
S'33.60'
p3386
sg76
g3349
sssS'SIERRA DE LA VENTANA'
p3387
(dp3388
g3
(dp3389
g5
S'8.50'
p3390
sg7
S'3.10'
p3391
sg9
S'-1.40'
p3392
sg11
S'2.70'
p3393
sg13
S'7.90'
p3394
sg15
S'13.70'
p3395
sg17
S'2098.00'
p3396
sg19
S'70.00'
p3397
sg21
S'61.80'
p3398
sg23
S'4.00'
p3399
sg25
S'BAP'
p3400
sg27
S'260.00'
p3401
sg29
S'40.00'
p3402
sg31
S'0.00'
p3403
sg33
S'38.10'
p3404
sg35
S'SIERRA DE LA VENTANA'
p3405
sg37
S'1553.00'
p3406
sg39
S'2737.00'
p3407
ssg41
(dp3408
g43
S'20.80'
p3409
sg45
S'13.20'
p3410
sg47
S'24.40'
p3411
sg49
S'14.00'
p3412
sg51
S'28.90'
p3413
sg53
S'60.00'
p3414
sg55
S'61.80'
p3415
sg57
S'20.50'
p3416
sg25
S'BAP'
p3417
sg60
g108
sg62
S'260.00'
p3418
sg64
S'19.90'
p3419
sg66
S'83.00'
p3420
sg68
S'11.30'
p3421
sg70
S'0.00'
p3422
sg72
S'38.10'
p3423
sg74
S'32.40'
p3424
sg76
g3387
sssS'RIO COLORADO'
p3425
(dp3426
g3
(dp3427
g5
S'8.30'
p3428
sg7
S'2.20'
p3429
sg9
S'-2.30'
p3430
sg11
S'1.50'
p3431
sg13
S'7.10'
p3432
sg15
S'15.60'
p3433
sg17
S'1821.00'
p3434
sg19
S'68.00'
p3435
sg21
S'64.10'
p3436
sg23
S'3.80'
p3437
sg25
S'RN'
p3438
sg27
S'79.00'
p3439
sg29
S'20.00'
p3440
sg31
S'0.00'
p3441
sg33
S'39.00'
p3442
sg35
S'RIO COLORADO'
p3443
sg37
S'1358.00'
p3444
sg39
S'2374.00'
p3445
ssg41
(dp3446
g43
S'22.70'
p3447
sg45
S'14.20'
p3448
sg47
S'25.50'
p3449
sg49
S'12.00'
p3450
sg51
S'31.00'
p3451
sg53
S'47.00'
p3452
sg55
S'64.10'
p3453
sg57
S'22.10'
p3454
sg25
S'RN'
p3455
sg60
g61
sg62
S'79.00'
p3456
sg64
S'21.20'
p3457
sg66
S'35.00'
p3458
sg68
S'8.90'
p3459
sg70
S'0.00'
p3460
sg72
S'39.00'
p3461
sg74
S'34.50'
p3462
sg76
g3425
sssS'MIRAMAR'
p3463
(dp3464
g3
(dp3465
g5
S'12.20'
p3466
sg7
S'7.60'
p3467
sg9
S'3.10'
p3468
sg11
S'8.50'
p3469
sg13
S'11.60'
p3470
sg15
S'18.30'
p3471
sg17
S'926.00'
p3472
sg19
S'78.00'
p3473
sg21
S'62.70'
p3474
sg23
S'7.70'
p3475
sg25
S'CD'
p3476
sg27
S'80.00'
p3477
sg29
S'15.00'
p3478
sg31
S'0.00'
p3479
sg33
S'30.90'
p3480
sg35
S'MIRAMAR'
p3481
sg37
S'573.00'
p3482
sg39
S'1354.00'
p3483
ssg41
(dp3484
g43
S'24.00'
p3485
sg45
S'18.60'
p3486
sg47
S'26.70'
p3487
sg49
S'22.70'
p3488
sg51
S'31.20'
p3489
sg53
S'76.00'
p3490
sg55
S'62.70'
p3491
sg57
S'24.40'
p3492
sg25
S'CD'
p3493
sg60
g108
sg62
S'80.00'
p3494
sg64
S'22.90'
p3495
sg66
S'133.00'
p3496
sg68
S'19.30'
p3497
sg70
S'0.00'
p3498
sg72
S'30.90'
p3499
sg74
S'34.70'
p3500
sg76
g3463
sssS'BASE ESPERANZA'
p3501
(dp3502
g3
(dp3503
g5
S'-11.40'
p3504
sg7
S'-15.80'
p3505
sg9
S'-20.30'
p3506
sg11
S'-13.60'
p3507
sg13
S'2.50'
p3508
sg15
S'-6.80'
p3509
sg17
S'9325.00'
p3510
sg19
S'80.00'
p3511
sg21
S'57.00'
p3512
sg23
S'-15.90'
p3513
sg25
S'TF'
p3514
sg27
S'8.00'
p3515
sg29
S'61.00'
p3516
sg31
S'0.00'
p3517
sg33
S'63.40'
p3518
sg35
S'BASE ESPERANZA'
p3519
sg37
S'8595.00'
p3520
sg39
S'10055.00'
p3521
ssg41
(dp3522
g43
S'-0.10'
p3523
sg45
S'-2.70'
p3524
sg47
S'10.90'
p3525
sg49
S'4.90'
p3526
sg51
S'2.90'
p3527
sg53
S'83.00'
p3528
sg55
S'57.00'
p3529
sg57
S'-0.40'
p3530
sg25
S'TF'
p3531
sg60
g61
sg62
S'8.00'
p3532
sg64
S'5.40'
p3533
sg66
S'58.00'
p3534
sg68
S'-2.80'
p3535
sg70
S'0.00'
p3536
sg72
S'63.40'
p3537
sg74
S'6.40'
p3538
sg76
g3501
sssS'BARROW'
p3539
(dp3540
g3
(dp3541
g5
S'7.90'
p3542
sg7
S'2.80'
p3543
sg9
S'-1.70'
p3544
sg11
S'4.10'
p3545
sg13
S'8.60'
p3546
sg15
S'13.50'
p3547
sg17
S'2262.00'
p3548
sg19
S'79.00'
p3549
sg21
S'60.30'
p3550
sg23
S'3.40'
p3551
sg25
S'BAP'
p3552
sg27
S'120.00'
p3553
sg29
S'38.00'
p3554
sg31
S'44.00'
p3555
sg33
S'38.30'
p3556
sg35
S'BARROW'
p3557
sg37
S'1690.00'
p3558
sg39
S'2942.00'
p3559
ssg41
(dp3560
g43
S'20.10'
p3561
sg45
S'12.60'
p3562
sg47
S'24.00'
p3563
sg49
S'14.20'
p3564
sg51
S'28.10'
p3565
sg53
S'62.00'
p3566
sg55
S'60.30'
p3567
sg57
S'19.80'
p3568
sg25
S'BAP'
p3569
sg60
g108
sg62
S'120.00'
p3570
sg64
S'19.40'
p3571
sg66
S'76.00'
p3572
sg68
S'11.50'
p3573
sg70
S'67.00'
p3574
sg72
S'38.30'
p3575
sg74
S'31.60'
p3576
sg76
g3539
sssS'MAZARUCA'
p3577
(dp3578
g3
(dp3579
g5
S'11.00'
p3580
sg7
S'6.30'
p3581
sg9
S'1.80'
p3582
sg11
S'7.80'
p3583
sg13
S'11.10'
p3584
sg15
S'16.70'
p3585
sg17
S'1280.00'
p3586
sg19
S'82.00'
p3587
sg21
S'59.40'
p3588
sg23
S'6.50'
p3589
sg25
S'ER'
p3590
sg27
S'5.00'
p3591
sg29
S'51.00'
p3592
sg31
S'49.00'
p3593
sg33
S'33.60'
p3594
sg35
S'MAZARUCA'
p3595
sg37
S'853.00'
p3596
sg39
S'1812.00'
p3597
ssg41
(dp3598
g43
S'22.90'
p3599
sg45
S'16.50'
p3600
sg47
S'25.70'
p3601
sg49
S'19.00'
p3602
sg51
S'30.00'
p3603
sg53
S'68.00'
p3604
sg55
S'59.40'
p3605
sg57
S'22.70'
p3606
sg25
S'ER'
p3607
sg60
g376
sg62
S'5.00'
p3608
sg64
S'21.90'
p3609
sg66
S'101.00'
p3610
sg68
S'16.30'
p3611
sg70
S'67.00'
p3612
sg72
S'33.60'
p3613
sg74
S'33.50'
p3614
sg76
g3577
sssS'LAS FLORES'
p3615
(dp3616
g3
(dp3617
g5
S'9.10'
p3618
sg7
S'3.80'
p3619
sg9
S'-0.70'
p3620
sg11
S'5.80'
p3621
sg13
S'9.70'
p3622
sg15
S'14.90'
p3623
sg17
S'1859.00'
p3624
sg19
S'81.00'
p3625
sg21
S'59.10'
p3626
sg23
S'4.60'
p3627
sg25
S'BAP'
p3628
sg27
S'34.00'
p3629
sg29
S'51.00'
p3630
sg31
S'0.00'
p3631
sg33
S'36.00'
p3632
sg35
S'LAS FLORES'
p3633
sg37
S'1337.00'
p3634
sg39
S'2480.00'
p3635
ssg41
(dp3636
g43
S'21.50'
p3637
sg45
S'13.60'
p3638
sg47
S'24.50'
p3639
sg49
S'16.90'
p3640
sg51
S'28.80'
p3641
sg53
S'67.00'
p3642
sg55
S'59.10'
p3643
sg57
S'20.70'
p3644
sg25
S'BAP'
p3645
sg60
g108
sg62
S'34.00'
p3646
sg64
S'20.50'
p3647
sg66
S'79.00'
p3648
sg68
S'14.40'
p3649
sg70
S'0.00'
p3650
sg72
S'36.00'
p3651
sg74
S'32.30'
p3652
sg76
g3615
sssS'VILLA REGINA'
p3653
(dp3654
g3
(dp3655
g5
S'7.00'
p3656
sg7
S'-0.50'
p3657
sg9
S'-5.00'
p3658
sg11
S'1.60'
p3659
sg13
S'7.10'
p3660
sg15
S'14.70'
p3661
sg17
S'2321.00'
p3662
sg19
S'72.00'
p3663
sg21
S'67.10'
p3664
sg23
S'2.50'
p3665
sg25
S'RN'
p3666
sg27
S'205.00'
p3667
sg29
S'10.00'
p3668
sg31
S'0.00'
p3669
sg33
S'39.20'
p3670
sg35
S'VILLA REGINA'
p3671
sg37
S'1780.00'
p3672
sg39
S'2978.00'
p3673
ssg41
(dp3674
g43
S'21.00'
p3675
sg45
S'11.80'
p3676
sg47
S'24.40'
p3677
sg49
S'15.20'
p3678
sg51
S'29.80'
p3679
sg53
S'60.00'
p3680
sg55
S'67.10'
p3681
sg57
S'20.30'
p3682
sg25
S'RN'
p3683
sg60
g61
sg62
S'205.00'
p3684
sg64
S'19.70'
p3685
sg66
S'15.00'
p3686
sg68
S'12.70'
p3687
sg70
S'0.00'
p3688
sg72
S'39.20'
p3689
sg74
S'33.30'
p3690
sg76
g3653
sssS'DIQUE CRUZ DEL EJE'
p3691
(dp3692
g3
(dp3693
g5
S'13.00'
p3694
sg7
S'7.50'
p3695
sg9
S'3.00'
p3696
sg11
S'5.30'
p3697
sg13
S'9.50'
p3698
sg15
S'20.40'
p3699
sg17
S'683.00'
p3700
sg19
S'63.00'
p3701
sg21
S'64.80'
p3702
sg23
S'8.50'
p3703
sg25
S'CD'
p3704
sg27
S'515.00'
p3705
sg29
S'9.00'
p3706
sg31
S'0.00'
p3707
sg33
S'30.80'
p3708
sg35
S'DIQUE CRUZ DEL EJE'
p3709
sg37
S'383.00'
p3710
sg39
S'1056.00'
p3711
ssg41
(dp3712
g43
S'24.90'
p3713
sg45
S'18.70'
p3714
sg47
S'27.30'
p3715
sg49
S'18.00'
p3716
sg51
S'32.60'
p3717
sg53
S'59.00'
p3718
sg55
S'64.80'
p3719
sg57
S'25.20'
p3720
sg25
S'CD'
p3721
sg60
g108
sg62
S'515.00'
p3722
sg64
S'23.40'
p3723
sg66
S'82.00'
p3724
sg68
S'15.40'
p3725
sg70
S'0.00'
p3726
sg72
S'30.80'
p3727
sg74
S'36.10'
p3728
sg76
g3691
sssS'MAR DEL PLATA'
p3729
(dp3730
g3
(dp3731
g5
S'9.50'
p3732
sg7
S'5.00'
p3733
sg9
S'0.50'
p3734
sg11
S'6.60'
p3735
sg13
S'10.10'
p3736
sg15
S'13.60'
p3737
sg17
S'2078.00'
p3738
sg19
S'83.00'
p3739
sg21
S'57.60'
p3740
sg23
S'5.00'
p3741
sg25
S'BAP'
p3742
sg27
S'5.00'
p3743
sg29
S'73.00'
p3744
sg31
S'43.00'
p3745
sg33
S'38.10'
p3746
sg35
S'MAR DEL PLATA'
p3747
sg37
S'1486.00'
p3748
sg39
S'2808.00'
p3749
ssg41
(dp3750
g43
S'19.60'
p3751
sg45
S'14.20'
p3752
sg47
S'23.30'
p3753
sg49
S'17.50'
p3754
sg51
S'24.90'
p3755
sg53
S'76.00'
p3756
sg55
S'57.60'
p3757
sg57
S'19.10'
p3758
sg25
S'BAP'
p3759
sg60
g108
sg62
S'5.00'
p3760
sg64
S'19.80'
p3761
sg66
S'90.00'
p3762
sg68
S'15.00'
p3763
sg70
S'61.00'
p3764
sg72
S'38.10'
p3765
sg74
S'28.40'
p3766
sg76
g3729
sssS'TUCUMAN (AERO)'
p3767
(dp3768
g3
(dp3769
g5
S'13.10'
p3770
sg7
S'7.40'
p3771
sg9
S'2.90'
p3772
sg11
S'6.90'
p3773
sg13
S'10.40'
p3774
sg15
S'20.70'
p3775
sg17
S'686.00'
p3776
sg19
S'69.00'
p3777
sg21
S'65.20'
p3778
sg23
S'8.60'
p3779
sg25
S'TC'
p3780
sg27
S'420.00'
p3781
sg29
S'11.00'
p3782
sg31
S'47.00'
p3783
sg33
S'26.80'
p3784
sg35
S'TUCUMAN (AERO)'
p3785
sg37
S'386.00'
p3786
sg39
S'1057.00'
p3787
ssg41
(dp3788
g43
S'24.90'
p3789
sg45
S'19.50'
p3790
sg47
S'26.90'
p3791
sg49
S'21.90'
p3792
sg51
S'30.90'
p3793
sg53
S'71.00'
p3794
sg55
S'65.20'
p3795
sg57
S'24.70'
p3796
sg25
S'TC'
p3797
sg60
g376
sg62
S'420.00'
p3798
sg64
S'23.80'
p3799
sg66
S'160.00'
p3800
sg68
S'18.70'
p3801
sg70
S'43.00'
p3802
sg72
S'26.80'
p3803
sg74
S'34.40'
p3804
sg76
g3767
sssS'BELL VILLE'
p3805
(dp3806
g3
(dp3807
g5
S'10.80'
p3808
sg7
S'4.20'
p3809
sg9
S'-0.30'
p3810
sg11
S'5.80'
p3811
sg13
S'9.90'
p3812
sg15
S'17.90'
p3813
sg17
S'1296.00'
p3814
sg19
S'74.00'
p3815
sg21
S'62.70'
p3816
sg23
S'6.30'
p3817
sg25
S'CD'
p3818
sg27
S'130.00'
p3819
sg29
S'17.00'
p3820
sg31
S'0.00'
p3821
sg33
S'32.60'
p3822
sg35
S'BELL VILLE'
p3823
sg37
S'870.00'
p3824
sg39
S'1787.00'
p3825
ssg41
(dp3826
g43
S'23.60'
p3827
sg45
S'16.20'
p3828
sg47
S'25.90'
p3829
sg49
S'19.40'
p3830
sg51
S'30.80'
p3831
sg53
S'68.00'
p3832
sg55
S'62.70'
p3833
sg57
S'23.00'
p3834
sg25
S'CD'
p3835
sg60
g108
sg62
S'130.00'
p3836
sg64
S'22.30'
p3837
sg66
S'106.00'
p3838
sg68
S'16.50'
p3839
sg70
S'0.00'
p3840
sg72
S'32.60'
p3841
sg74
S'34.30'
p3842
sg76
g3805
sssS'USHUAIA'
p3843
(dp3844
g3
(dp3845
g5
S'1.90'
p3846
sg7
S'-1.00'
p3847
sg9
S'-5.50'
p3848
sg11
S'-1.60'
p3849
sg13
S'5.60'
p3850
sg15
S'4.90'
p3851
sg17
S'5215.00'
p3852
sg19
S'78.00'
p3853
sg21
S'68.30'
p3854
sg23
S'-2.60'
p3855
sg25
S'TF'
p3856
sg27
S'14.00'
p3857
sg29
S'39.00'
p3858
sg31
S'22.00'
p3859
sg33
S'54.80'
p3860
sg35
S'USHUAIA'
p3861
sg37
S'4485.00'
p3862
sg39
S'5945.00'
p3863
ssg41
(dp3864
g43
S'9.10'
p3865
sg45
S'5.10'
p3866
sg47
S'16.80'
p3867
sg49
S'8.30'
p3868
sg51
S'13.40'
p3869
sg53
S'72.00'
p3870
sg55
S'68.30'
p3871
sg57
S'8.80'
p3872
sg25
S'TF'
p3873
sg60
g61
sg62
S'14.00'
p3874
sg64
S'12.10'
p3875
sg66
S'52.00'
p3876
sg68
S'4.00'
p3877
sg70
S'30.00'
p3878
sg72
S'54.80'
p3879
sg74
S'16.90'
p3880
sg76
g3843
sssS'ALTO VALLE'
p3881
(dp3882
g3
(dp3883
g5
S'6.90'
p3884
sg7
S'-0.70'
p3885
sg9
S'-5.20'
p3886
sg11
S'-0.60'
p3887
sg13
S'6.10'
p3888
sg15
S'15.00'
p3889
sg17
S'2222.00'
p3890
sg19
S'64.00'
p3891
sg21
S'67.70'
p3892
sg23
S'2.40'
p3893
sg25
S'RN'
p3894
sg27
S'242.00'
p3895
sg29
S'10.00'
p3896
sg31
S'0.00'
p3897
sg33
S'39.00'
p3898
sg35
S'ALTO VALLE'
p3899
sg37
S'1688.00'
p3900
sg39
S'2863.00'
p3901
ssg41
(dp3902
g43
S'21.40'
p3903
sg45
S'11.90'
p3904
sg47
S'24.50'
p3905
sg49
S'12.40'
p3906
sg51
S'30.10'
p3907
sg53
S'48.00'
p3908
sg55
S'67.70'
p3909
sg57
S'20.50'
p3910
sg25
S'RN'
p3911
sg60
g61
sg62
S'242.00'
p3912
sg64
S'20.00'
p3913
sg66
S'13.00'
p3914
sg68
S'9.30'
p3915
sg70
S'0.00'
p3916
sg72
S'39.00'
p3917
sg74
S'33.60'
p3918
sg76
g3881
sssS'ORAN'
p3919
(dp3920
g3
(dp3921
g5
S'15.30'
p3922
sg7
S'9.40'
p3923
sg9
S'4.90'
p3924
sg11
S'10.30'
p3925
sg13
S'13.00'
p3926
sg15
S'23.50'
p3927
sg17
S'340.00'
p3928
sg19
S'75.00'
p3929
sg21
S'64.30'
p3930
sg23
S'10.80'
p3931
sg25
S'ST'
p3932
sg27
S'357.00'
p3933
sg29
S'4.00'
p3934
sg31
S'41.00'
p3935
sg33
S'23.20'
p3936
sg35
S'ORAN'
p3937
sg37
S'145.00'
p3938
sg39
S'619.00'
p3939
ssg41
(dp3940
g43
S'25.60'
p3941
sg45
S'20.60'
p3942
sg47
S'27.80'
p3943
sg49
S'25.00'
p3944
sg51
S'32.60'
p3945
sg53
S'77.00'
p3946
sg55
S'64.30'
p3947
sg57
S'26.10'
p3948
sg25
S'ST'
p3949
sg60
g376
sg62
S'357.00'
p3950
sg64
S'24.30'
p3951
sg66
S'151.00'
p3952
sg68
S'20.90'
p3953
sg70
S'46.00'
p3954
sg72
S'23.20'
p3955
sg74
S'36.10'
p3956
sg76
g3919
sssS'MAR DEL PLATA (AERO)'
p3957
(dp3958
g3
(dp3959
g5
S'8.50'
p3960
sg7
S'4.00'
p3961
sg9
S'-0.50'
p3962
sg11
S'5.60'
p3963
sg13
S'9.50'
p3964
sg15
S'13.50'
p3965
sg17
S'2285.00'
p3966
sg19
S'84.00'
p3967
sg21
S'57.60'
p3968
sg23
S'4.00'
p3969
sg25
S'BAP'
p3970
sg27
S'24.00'
p3971
sg29
S'72.00'
p3972
sg31
S'40.00'
p3973
sg33
S'37.90'
p3974
sg35
S'MAR DEL PLATA (AERO)'
p3975
sg37
S'1653.00'
p3976
sg39
S'3015.00'
p3977
ssg41
(dp3978
g43
S'19.20'
p3979
sg45
S'13.00'
p3980
sg47
S'23.10'
p3981
sg49
S'16.90'
p3982
sg51
S'25.20'
p3983
sg53
S'76.00'
p3984
sg55
S'57.60'
p3985
sg57
S'18.60'
p3986
sg25
S'BAP'
p3987
sg60
g108
sg62
S'24.00'
p3988
sg64
S'19.30'
p3989
sg66
S'87.00'
p3990
sg68
S'14.40'
p3991
sg70
S'55.00'
p3992
sg72
S'37.90'
p3993
sg74
S'28.70'
p3994
sg76
g3957
sssS'EZEIZA'
p3995
(dp3996
g3
(dp3997
g5
S'10.00'
p3998
sg7
S'5.20'
p3999
sg9
S'0.70'
p4000
sg11
S'6.50'
p4001
sg13
S'10.20'
p4002
sg15
S'15.70'
p4003
sg17
S'1568.00'
p4004
sg19
S'81.00'
p4005
sg21
S'58.50'
p4006
sg23
S'5.50'
p4007
sg25
S'BAP'
p4008
sg27
S'20.00'
p4009
sg29
S'50.00'
p4010
sg31
S'32.00'
p4011
sg33
S'34.80'
p4012
sg35
S'EZEIZA'
p4013
sg37
S'1106.00'
p4014
sg39
S'2128.00'
p4015
ssg41
(dp4016
g43
S'22.30'
p4017
sg45
S'16.00'
p4018
sg47
S'25.30'
p4019
sg49
S'17.60'
p4020
sg51
S'29.10'
p4021
sg53
S'67.00'
p4022
sg55
S'58.50'
p4023
sg57
S'22.00'
p4024
sg25
S'BAP'
p4025
sg60
g108
sg62
S'20.00'
p4026
sg64
S'21.50'
p4027
sg66
S'92.00'
p4028
sg68
S'15.10'
p4029
sg70
S'53.00'
p4030
sg72
S'34.80'
p4031
sg74
S'32.60'
p4032
sg76
g3995
sssS'AEROPARQUE'
p4033
(dp4034
g3
(dp4035
g5
S'11.30'
p4036
sg7
S'8.30'
p4037
sg9
S'3.80'
p4038
sg11
S'7.70'
p4039
sg13
S'11.00'
p4040
sg15
S'14.90'
p4041
sg17
S'1278.00'
p4042
sg19
S'80.00'
p4043
sg21
S'58.40'
p4044
sg23
S'6.80'
p4045
sg25
S'BAC'
p4046
sg27
S'6.00'
p4047
sg29
S'58.00'
p4048
sg31
S'43.00'
p4049
sg33
S'34.60'
p4050
sg35
S'AEROPARQUE'
p4051
sg37
S'850.00'
p4052
sg39
S'1786.00'
p4053
ssg41
(dp4054
g43
S'23.20'
p4055
sg45
S'19.10'
p4056
sg47
S'25.70'
p4057
sg49
S'19.40'
p4058
sg51
S'27.70'
p4059
sg53
S'68.00'
p4060
sg55
S'58.40'
p4061
sg57
S'22.90'
p4062
sg25
S'BAC'
p4063
sg60
g108
sg62
S'6.00'
p4064
sg64
S'23.00'
p4065
sg66
S'92.00'
p4066
sg68
S'16.50'
p4067
sg70
S'53.00'
p4068
sg72
S'34.60'
p4069
sg74
S'31.20'
p4070
sg76
g4033
sssS'SAN RAFAEL'
p4071
(dp4072
g3
(dp4073
g5
S'8.10'
p4074
sg7
S'1.40'
p4075
sg9
S'-3.10'
p4076
sg11
S'0.10'
p4077
sg13
S'6.50'
p4078
sg15
S'16.20'
p4079
sg17
S'1834.00'
p4080
sg19
S'61.00'
p4081
sg21
S'68.40'
p4082
sg23
S'3.60'
p4083
sg25
S'MZ'
p4084
sg27
S'748.00'
p4085
sg29
S'5.00'
p4086
sg31
S'55.00'
p4087
sg33
S'34.60'
p4088
sg35
S'SAN RAFAEL'
p4089
sg37
S'1341.00'
p4090
sg39
S'2405.00'
p4091
ssg41
(dp4092
g43
S'22.50'
p4093
sg45
S'13.90'
p4094
sg47
S'25.10'
p4095
sg49
S'13.50'
p4096
sg51
S'30.20'
p4097
sg53
S'50.00'
p4098
sg55
S'68.40'
p4099
sg57
S'21.50'
p4100
sg25
S'MZ'
p4101
sg60
g61
sg62
S'748.00'
p4102
sg64
S'21.10'
p4103
sg66
S'39.00'
p4104
sg68
S'10.70'
p4105
sg70
S'72.00'
p4106
sg72
S'34.60'
p4107
sg74
S'33.70'
p4108
sg76
g4071
sssS'NEUQUEN '
p4109
(dp4110
g3
(dp4111
g5
S'6.40'
p4112
sg7
S'0.00'
p4113
sg9
S'-4.50'
p4114
sg11
S'-1.20'
p4115
sg13
S'5.80'
p4116
sg15
S'14.10'
p4117
sg17
S'2183.00'
p4118
sg19
S'64.00'
p4119
sg21
S'68.10'
p4120
sg23
S'1.90'
p4121
sg25
S'NQ'
p4122
sg27
S'270.00'
p4123
sg29
S'8.00'
p4124
sg31
S'48.00'
p4125
sg33
S'39.00'
p4126
sg35
S'NEUQUEN '
p4127
sg37
S'1678.00'
p4128
sg39
S'2752.00'
p4129
ssg41
(dp4130
g43
S'19.00'
p4131
sg45
S'13.70'
p4132
sg47
S'25.10'
p4133
sg49
S'9.60'
p4134
sg51
S'30.50'
p4135
sg53
S'38.00'
p4136
sg55
S'68.10'
p4137
sg57
S'21.60'
p4138
sg25
S'NQ'
p4139
sg60
g61
sg62
S'270.00'
p4140
sg64
S'18.30'
p4141
sg66
S'11.00'
p4142
sg68
S'5.50'
p4143
sg70
S'64.00'
p4144
sg72
S'39.00'
p4145
sg74
S'34.00'
p4146
sg76
g4109
sssS'SAN PEDRO'
p4147
(dp4148
g3
(dp4149
g5
S'10.50'
p4150
sg7
S'5.60'
p4151
sg9
S'1.10'
p4152
sg11
S'7.00'
p4153
sg13
S'10.60'
p4154
sg15
S'16.40'
p4155
sg17
S'1337.00'
p4156
sg19
S'80.00'
p4157
sg21
S'59.70'
p4158
sg23
S'6.00'
p4159
sg25
S'BAP'
p4160
sg27
S'28.00'
p4161
sg29
S'51.00'
p4162
sg31
S'48.00'
p4163
sg33
S'33.70'
p4164
sg35
S'SAN PEDRO'
p4165
sg37
S'909.00'
p4166
sg39
S'1847.00'
p4167
ssg41
(dp4168
g43
S'23.20'
p4169
sg45
S'16.50'
p4170
sg47
S'25.70'
p4171
sg49
S'18.70'
p4172
sg51
S'30.00'
p4173
sg53
S'66.00'
p4174
sg55
S'59.70'
p4175
sg57
S'22.80'
p4176
sg25
S'BAP'
p4177
sg60
g108
sg62
S'28.00'
p4178
sg64
S'22.10'
p4179
sg66
S'100.00'
p4180
sg68
S'15.90'
p4181
sg70
S'66.00'
p4182
sg72
S'33.70'
p4183
sg74
S'33.50'
p4184
sg76
g4147
sssS'OBERA'
p4185
(dp4186
g3
(dp4187
g5
S'16.10'
p4188
sg7
S'11.30'
p4189
sg9
S'6.00'
p4190
sg11
S'10.90'
p4191
sg13
S'13.60'
p4192
sg15
S'21.30'
p4193
sg17
S'413.00'
p4194
sg19
S'73.00'
p4195
sg21
S'55.10'
p4196
sg23
S'11.60'
p4197
sg25
S'MS'
p4198
sg27
S'343.00'
p4199
sg29
S'116.00'
p4200
sg31
S'0.00'
p4201
sg33
S'27.50'
p4202
sg35
S'OBERA'
p4203
sg37
S'154.00'
p4204
sg39
S'790.00'
p4205
ssg41
(dp4206
g43
S'24.80'
p4207
sg45
S'19.60'
p4208
sg47
S'27.20'
p4209
sg49
S'21.90'
p4210
sg51
S'31.80'
p4211
sg53
S'71.00'
p4212
sg55
S'55.10'
p4213
sg57
S'25.20'
p4214
sg25
S'MS'
p4215
sg60
g223
sg62
S'343.00'
p4216
sg64
S'23.70'
p4217
sg66
S'164.00'
p4218
sg68
S'18.60'
p4219
sg70
S'0.00'
p4220
sg72
S'27.50'
p4221
sg74
S'35.30'
p4222
sg76
g4185
sssS'CHEPES'
p4223
(dp4224
g3
(dp4225
g5
S'11.50'
p4226
sg7
S'5.20'
p4227
sg9
S'0.70'
p4228
sg11
S'4.10'
p4229
sg13
S'8.60'
p4230
sg15
S'18.20'
p4231
sg17
S'996.00'
p4232
sg19
S'63.00'
p4233
sg21
S'66.60'
p4234
sg23
S'7.00'
p4235
sg25
S'LR'
p4236
sg27
S'658.00'
p4237
sg29
S'5.00'
p4238
sg31
S'0.00'
p4239
sg33
S'31.30'
p4240
sg35
S'CHEPES'
p4241
sg37
S'690.00'
p4242
sg39
S'1398.00'
p4243
ssg41
(dp4244
g43
S'25.80'
p4245
sg45
S'19.60'
p4246
sg47
S'27.90'
p4247
sg49
S'18.40'
p4248
sg51
S'33.70'
p4249
sg53
S'57.00'
p4250
sg55
S'66.60'
p4251
sg57
S'26.20'
p4252
sg25
S'LR'
p4253
sg60
g108
sg62
S'658.00'
p4254
sg64
S'24.10'
p4255
sg66
S'60.00'
p4256
sg68
S'15.80'
p4257
sg70
S'0.00'
p4258
sg72
S'31.30'
p4259
sg74
S'37.20'
p4260
sg76
g4223
sssS'COLONIA BENITEZ'
p4261
(dp4262
g3
(dp4263
g5
S'15.70'
p4264
sg7
S'10.30'
p4265
sg9
S'5.80'
p4266
sg11
S'11.70'
p4267
sg13
S'14.50'
p4268
sg15
S'22.40'
p4269
sg17
S'375.00'
p4270
sg19
S'76.00'
p4271
sg21
S'58.90'
p4272
sg23
S'11.20'
p4273
sg25
S'CHC'
p4274
sg27
S'54.00'
p4275
sg29
S'45.00'
p4276
sg31
S'55.00'
p4277
sg33
S'27.40'
p4278
sg35
S'COLONIA BENITEZ'
p4279
sg37
S'145.00'
p4280
sg39
S'733.00'
p4281
ssg41
(dp4282
g43
S'25.50'
p4283
sg45
S'19.60'
p4284
sg47
S'27.50'
p4285
sg49
S'23.50'
p4286
sg51
S'32.50'
p4287
sg53
S'71.00'
p4288
sg55
S'58.90'
p4289
sg57
S'25.60'
p4290
sg25
S'CHC'
p4291
sg60
g223
sg62
S'54.00'
p4292
sg64
S'24.00'
p4293
sg66
S'136.00'
p4294
sg68
S'19.70'
p4295
sg70
S'65.00'
p4296
sg72
S'27.40'
p4297
sg74
S'36.00'
p4298
sg76
g4261
sssS'POSADAS'
p4299
(dp4300
g3
(dp4301
g5
S'16.50'
p4302
sg7
S'11.40'
p4303
sg9
S'6.90'
p4304
sg11
S'12.00'
p4305
sg13
S'14.70'
p4306
sg15
S'22.60'
p4307
sg17
S'328.00'
p4308
sg19
S'77.00'
p4309
sg21
S'56.00'
p4310
sg23
S'12.00'
p4311
sg25
S'MS'
p4312
sg27
S'133.00'
p4313
sg29
S'94.00'
p4314
sg31
S'47.00'
p4315
sg33
S'27.40'
p4316
sg35
S'POSADAS'
p4317
sg37
S'92.00'
p4318
sg39
S'656.00'
p4319
ssg41
(dp4320
g43
S'25.60'
p4321
sg45
S'20.10'
p4322
sg47
S'27.50'
p4323
sg49
S'22.90'
p4324
sg51
S'32.10'
p4325
sg53
S'71.00'
p4326
sg55
S'56.00'
p4327
sg57
S'25.60'
p4328
sg25
S'MS'
p4329
sg60
g223
sg62
S'133.00'
p4330
sg64
S'24.30'
p4331
sg66
S'157.00'
p4332
sg68
S'19.40'
p4333
sg70
S'57.00'
p4334
sg72
S'27.40'
p4335
sg74
S'35.60'
p4336
sg76
g4299
sssS'SAN MIGUEL'
p4337
(dp4338
g3
(dp4339
g5
S'10.30'
p4340
sg7
S'5.80'
p4341
sg9
S'1.30'
p4342
sg11
S'6.60'
p4343
sg13
S'10.30'
p4344
sg15
S'15.80'
p4345
sg17
S'1497.00'
p4346
sg19
S'79.00'
p4347
sg21
S'58.70'
p4348
sg23
S'5.80'
p4349
sg25
S'BAP'
p4350
sg27
S'26.00'
p4351
sg29
S'67.00'
p4352
sg31
S'49.00'
p4353
sg33
S'34.60'
p4354
sg35
S'SAN MIGUEL'
p4355
sg37
S'1045.00'
p4356
sg39
S'2057.00'
p4357
ssg41
(dp4358
g43
S'22.20'
p4359
sg45
S'16.20'
p4360
sg47
S'25.20'
p4361
sg49
S'17.40'
p4362
sg51
S'28.70'
p4363
sg53
S'65.00'
p4364
sg55
S'58.70'
p4365
sg57
S'219.00'
p4366
sg25
S'BAP'
p4367
sg60
g108
sg62
S'26.00'
p4368
sg64
S'21.60'
p4369
sg66
S'114.00'
p4370
sg68
S'14.70'
p4371
sg70
S'70.00'
p4372
sg72
S'34.60'
p4373
sg74
S'32.20'
p4374
sg76
g4337
sssS'VILLA ANGELA'
p4375
(dp4376
g3
(dp4377
g5
S'14.90'
p4378
sg7
S'9.20'
p4379
sg9
S'4.70'
p4380
sg11
S'10.10'
p4381
sg13
S'13.20'
p4382
sg15
S'22.60'
p4383
sg17
S'479.00'
p4384
sg19
S'73.00'
p4385
sg21
S'60.70'
p4386
sg23
S'10.40'
p4387
sg25
S'CHC'
p4388
sg27
S'74.00'
p4389
sg29
S'22.00'
p4390
sg31
S'0.00'
p4391
sg33
S'27.60'
p4392
sg35
S'VILLA ANGELA'
p4393
sg37
S'210.00'
p4394
sg39
S'811.00'
p4395
ssg41
(dp4396
g43
S'26.00'
p4397
sg45
S'19.90'
p4398
sg47
S'20.00'
p4399
sg49
S'22.80'
p4400
sg51
S'33.80'
p4401
sg53
S'68.00'
p4402
sg55
S'60.70'
p4403
sg57
S'26.30'
p4404
sg25
S'CHC'
p4405
sg60
g223
sg62
S'74.00'
p4406
sg64
S'24.20'
p4407
sg66
S'126.00'
p4408
sg68
S'19.20'
p4409
sg70
S'0.00'
p4410
sg72
S'27.60'
p4411
sg74
S'37.30'
p4412
sg76
g4375
sssS'SANTIAGO DEL ESTERO'
p4413
(dp4414
g3
(dp4415
g5
S'13.80'
p4416
sg7
S'6.60'
p4417
sg9
S'2.10'
p4418
sg11
S'6.20'
p4419
sg13
S'10.30'
p4420
sg15
S'21.80'
p4421
sg17
S'623.00'
p4422
sg19
S'65.00'
p4423
sg21
S'64.30'
p4424
sg23
S'9.30'
p4425
sg25
S'SE'
p4426
sg27
S'199.00'
p4427
sg29
S'5.00'
p4428
sg31
S'50.00'
p4429
sg33
S'27.80'
p4430
sg35
S'SANTIAGO DEL ESTERO'
p4431
sg37
S'350.00'
p4432
sg39
S'940.00'
p4433
ssg41
(dp4434
g43
S'26.60'
p4435
sg45
S'19.90'
p4436
sg47
S'28.10'
p4437
sg49
S'21.30'
p4438
sg51
S'33.90'
p4439
sg53
S'63.00'
p4440
sg55
S'64.30'
p4441
sg57
S'26.40'
p4442
sg25
S'SE'
p4443
sg60
g376
sg62
S'199.00'
p4444
sg64
S'24.70'
p4445
sg66
S'95.00'
p4446
sg68
S'18.20'
p4447
sg70
S'57.00'
p4448
sg72
S'27.80'
p4449
sg74
S'37.40'
p4450
sg76
g4413
sssS'LORETO'
p4451
(dp4452
g3
(dp4453
g5
S'16.00'
p4454
sg7
S'10.40'
p4455
sg9
S'5.90'
p4456
sg11
S'13.30'
p4457
sg13
S'16.00'
p4458
sg15
S'22.50'
p4459
sg17
S'433.00'
p4460
sg19
S'85.00'
p4461
sg21
S'55.50'
p4462
sg23
S'11.50'
p4463
sg25
S'MS'
p4464
sg27
S'163.00'
p4465
sg29
S'138.00'
p4466
sg31
S'48.00'
p4467
sg33
S'27.40'
p4468
sg35
S'LORETO'
p4469
sg37
S'147.00'
p4470
sg39
S'808.00'
p4471
ssg41
(dp4472
g43
S'24.90'
p4473
sg45
S'18.60'
p4474
sg47
S'26.90'
p4475
sg49
S'25.20'
p4476
sg51
S'31.80'
p4477
sg53
S'80.00'
p4478
sg55
S'55.50'
p4479
sg57
S'24.70'
p4480
sg25
S'MS'
p4481
sg60
g223
sg62
S'163.00'
p4482
sg64
S'23.50'
p4483
sg66
S'177.00'
p4484
sg68
S'21.00'
p4485
sg70
S'59.00'
p4486
sg72
S'27.40'
p4487
sg74
S'35.30'
p4488
sg76
g4451
sssS'PINAMAR'
p4489
(dp4490
g3
(dp4491
g5
S'9.10'
p4492
sg7
S'5.00'
p4493
sg9
S'0.50'
p4494
sg11
S'6.00'
p4495
sg13
S'9.70'
p4496
sg15
S'13.80'
p4497
sg17
S'1945.00'
p4498
sg19
S'82.00'
p4499
sg21
S'56.90'
p4500
sg23
S'4.60'
p4501
sg25
S'BAP'
p4502
sg27
S'13.00'
p4503
sg29
S'61.00'
p4504
sg31
S'0.00'
p4505
sg33
S'37.10'
p4506
sg35
S'PINAMAR'
p4507
sg37
S'1401.00'
p4508
sg39
S'2626.00'
p4509
ssg41
(dp4510
g43
S'20.00'
p4511
sg45
S'15.10'
p4512
sg47
S'23.80'
p4513
sg49
S'17.10'
p4514
sg51
S'25.60'
p4515
sg53
S'73.00'
p4516
sg55
S'56.90'
p4517
sg57
S'19.80'
p4518
sg25
S'BAP'
p4519
sg60
g108
sg62
S'13.00'
p4520
sg64
S'20.20'
p4521
sg66
S'88.00'
p4522
sg68
S'14.60'
p4523
sg70
S'0.00'
p4524
sg72
S'37.10'
p4525
sg74
S'29.10'
p4526
sg76
g4489
sssS'MERCEDES'
p4527
(dp4528
g3
(dp4529
g5
S'10.60'
p4530
sg7
S'4.30'
p4531
sg9
S'-0.20'
p4532
sg11
S'7.80'
p4533
sg13
S'11.20'
p4534
sg15
S'16.00'
p4535
sg17
S'1656.00'
p4536
sg19
S'84.00'
p4537
sg21
S'59.40'
p4538
sg23
S'6.10'
p4539
sg25
S'BAP'
p4540
sg27
S'43.00'
p4541
sg29
S'56.00'
p4542
sg31
S'0.00'
p4543
sg33
S'34.70'
p4544
sg35
S'MERCEDES'
p4545
sg37
S'1163.00'
p4546
sg39
S'2243.00'
p4547
ssg41
(dp4548
g43
S'22.80'
p4549
sg45
S'14.00'
p4550
sg47
S'24.90'
p4551
sg49
S'20.10'
p4552
sg51
S'29.70'
p4553
sg53
S'73.00'
p4554
sg55
S'59.40'
p4555
sg57
S'21.30'
p4556
sg25
S'BAP'
p4557
sg60
g108
sg62
S'43.00'
p4558
sg64
S'21.40'
p4559
sg66
S'93.00'
p4560
sg68
S'17.40'
p4561
sg70
S'0.00'
p4562
sg72
S'34.70'
p4563
sg74
S'33.20'
p4564
sg76
g4527
sssS'TINOGASTA '
p4565
(dp4566
g3
(dp4567
g5
S'10.50'
p4568
sg7
S'-0.30'
p4569
sg9
S'-4.80'
p4570
sg11
S'0.40'
p4571
sg13
S'6.60'
p4572
sg15
S'21.00'
p4573
sg17
S'1342.00'
p4574
sg19
S'55.00'
p4575
sg21
S'67.60'
p4576
sg23
S'6.00'
p4577
sg25
S'CA'
p4578
sg27
S'1201.00'
p4579
sg29
S'1.00'
p4580
sg31
S'0.00'
p4581
sg33
S'28.10'
p4582
sg35
S'TINOGASTA '
p4583
sg37
S'943.00'
p4584
sg39
S'1784.00'
p4585
ssg41
(dp4586
g43
S'24.50'
p4587
sg45
S'16.20'
p4588
sg47
S'26.60'
p4589
sg49
S'16.40'
p4590
sg51
S'32.70'
p4591
sg53
S'54.00'
p4592
sg55
S'67.60'
p4593
sg57
S'23.90'
p4594
sg25
S'CA'
p4595
sg60
g453
sg62
S'1201.00'
p4596
sg64
S'22.70'
p4597
sg66
S'27.00'
p4598
sg68
S'14.20'
p4599
sg70
S'0.00'
p4600
sg72
S'28.10'
p4601
sg74
S'36.20'
p4602
sg76
g4565
sssS'BAHIA BLANCA'
p4603
(dp4604
g3
(dp4605
g5
S'8.40'
p4606
sg7
S'3.70'
p4607
sg9
S'-0.80'
p4608
sg11
S'2.50'
p4609
sg13
S'7.80'
p4610
sg15
S'14.50'
p4611
sg17
S'1859.00'
p4612
sg19
S'70.00'
p4613
sg21
S'62.20'
p4614
sg23
S'3.90'
p4615
sg25
S'BAP'
p4616
sg27
S'83.00'
p4617
sg29
S'28.00'
p4618
sg31
S'39.00'
p4619
sg33
S'38.70'
p4620
sg35
S'BAHIA BLANCA'
p4621
sg37
S'1369.00'
p4622
sg39
S'2433.00'
p4623
ssg41
(dp4624
g43
S'21.70'
p4625
sg45
S'14.70'
p4626
sg47
S'25.10'
p4627
sg49
S'12.60'
p4628
sg51
S'29.50'
p4629
sg53
S'51.00'
p4630
sg55
S'62.20'
p4631
sg57
S'21.60'
p4632
sg25
S'BAP'
p4633
sg60
g108
sg62
S'83.00'
p4634
sg64
S'20.80'
p4635
sg66
S'62.00'
p4636
sg68
S'9.60'
p4637
sg70
S'64.00'
p4638
sg72
S'38.70'
p4639
sg74
S'33.00'
p4640
sg76
g4603
sssS'HILARIO ASCASUBI'
p4641
(dp4642
g3
(dp4643
g5
S'8.60'
p4644
sg7
S'2.10'
p4645
sg9
S'-2.40'
p4646
sg11
S'2.60'
p4647
sg13
S'7.70'
p4648
sg15
S'14.60'
p4649
sg17
S'2047.00'
p4650
sg19
S'69.00'
p4651
sg21
S'62.60'
p4652
sg23
S'4.10'
p4653
sg25
S'BAP'
p4654
sg27
S'22.00'
p4655
sg29
S'25.00'
p4656
sg31
S'49.00'
p4657
sg33
S'39.40'
p4658
sg35
S'HILARIO ASCASUBI'
p4659
sg37
S'1516.00'
p4660
sg39
S'2696.00'
p4661
ssg41
(dp4662
g43
S'21.40'
p4663
sg45
S'13.00'
p4664
sg47
S'24.30'
p4665
sg49
S'14.50'
p4666
sg51
S'28.80'
p4667
sg53
S'59.00'
p4668
sg55
S'62.60'
p4669
sg57
S'20.40'
p4670
sg25
S'BAP'
p4671
sg60
g108
sg62
S'22.00'
p4672
sg64
S'20.40'
p4673
sg66
S'54.00'
p4674
sg68
S'11.90'
p4675
sg70
S'67.00'
p4676
sg72
S'39.40'
p4677
sg74
S'32.30'
p4678
sg76
g4641
sssS'ING. DAGOBERTO SARDINA'
p4679
(dp4680
g3
(dp4681
g5
S'6.90'
p4682
sg7
S'-0.60'
p4683
sg9
S'-5.10'
p4684
sg11
S'0.50'
p4685
sg13
S'6.60'
p4686
sg15
S'15.60'
p4687
sg17
S'1905.00'
p4688
sg19
S'67.00'
p4689
sg21
S'69.20'
p4690
sg23
S'2.40'
p4691
sg25
S'MZ'
p4692
sg27
S'750.00'
p4693
sg29
S'3.00'
p4694
sg31
S'0.00'
p4695
sg33
S'33.30'
p4696
sg35
S'ING. DAGOBERTO SARDINA'
p4697
sg37
S'1451.00'
p4698
sg39
S'2451.00'
p4699
ssg41
(dp4700
g43
S'23.20'
p4701
sg45
S'15.60'
p4702
sg47
S'25.70'
p4703
sg49
S'14.90'
p4704
sg51
S'30.60'
p4705
sg53
S'52.00'
p4706
sg55
S'69.20'
p4707
sg57
S'22.60'
p4708
sg25
S'MZ'
p4709
sg60
g61
sg62
S'750.00'
p4710
sg64
S'21.90'
p4711
sg66
S'32.00'
p4712
sg68
S'12.30'
p4713
sg70
S'0.00'
p4714
sg72
S'33.30'
p4715
sg74
S'34.10'
p4716
sg76
g4679
sssS'MONTE CASEROS'
p4717
(dp4718
g3
(dp4719
g5
S'14.00'
p4720
sg7
S'9.10'
p4721
sg9
S'4.60'
p4722
sg11
S'9.80'
p4723
sg13
S'12.80'
p4724
sg15
S'19.40'
p4725
sg17
S'753.00'
p4726
sg19
S'78.00'
p4727
sg21
S'57.70'
p4728
sg23
S'9.50'
p4729
sg25
S'CR'
p4730
sg27
S'54.00'
p4731
sg29
S'59.00'
p4732
sg31
S'52.00'
p4733
sg33
S'30.30'
p4734
sg35
S'MONTE CASEROS'
p4735
sg37
S'412.00'
p4736
sg39
S'1181.00'
p4737
ssg41
(dp4738
g43
S'25.20'
p4739
sg45
S'18.90'
p4740
sg47
S'26.90'
p4741
sg49
S'20.00'
p4742
sg51
S'31.20'
p4743
sg53
S'64.00'
p4744
sg55
S'57.70'
p4745
sg57
S'24.60'
p4746
sg25
S'CR'
p4747
sg60
g376
sg62
S'54.00'
p4748
sg64
S'23.90'
p4749
sg66
S'134.00'
p4750
sg68
S'17.00'
p4751
sg70
S'68.00'
p4752
sg72
S'30.30'
p4753
sg74
S'34.70'
p4754
sg76
g4717
sssS'BUENOS AIRES'
p4755
(dp4756
g3
(dp4757
g5
S'11.40'
p4758
sg7
S'7.60'
p4759
sg9
S'3.10'
p4760
sg11
S'7.50'
p4761
sg13
S'10.90'
p4762
sg15
S'16.10'
p4763
sg17
S'1221.00'
p4764
sg19
S'79.00'
p4765
sg21
S'58.50'
p4766
sg23
S'6.90'
p4767
sg25
S'BAC'
p4768
sg27
S'25.00'
p4769
sg29
S'61.00'
p4770
sg31
S'44.00'
p4771
sg33
S'34.60'
p4772
sg35
S'BUENOS AIRES'
p4773
sg37
S'793.00'
p4774
sg39
S'1719.00'
p4775
ssg41
(dp4776
g43
S'23.50'
p4777
sg45
S'18.40'
p4778
sg47
S'26.00'
p4779
sg49
S'18.40'
p4780
sg51
S'29.00'
p4781
sg53
S'64.00'
p4782
sg55
S'58.50'
p4783
sg57
S'23.20'
p4784
sg25
S'BAC'
p4785
sg60
g108
sg62
S'25.00'
p4786
sg64
S'22.90'
p4787
sg66
S'100.00'
p4788
sg68
S'15.70'
p4789
sg70
S'60.00'
p4790
sg72
S'34.60'
p4791
sg74
S'32.50'
p4792
sg76
g4755
sssS'TACA AGLE'
p4793
(dp4794
g3
(dp4795
g5
S'18.30'
p4796
sg7
S'12.60'
p4797
sg9
S'81.00'
p4798
sg11
S'12.70'
p4799
sg13
S'15.30'
p4800
sg15
S'24.80'
p4801
sg17
S'118.00'
p4802
sg19
S'73.00'
p4803
sg21
S'58.80'
p4804
sg23
S'13.80'
p4805
sg25
S'FM'
p4806
sg27
S'87.00'
p4807
sg29
S'32.00'
p4808
sg31
S'0.00'
p4809
sg33
S'25.00'
p4810
sg35
S'TACA AGLE'
p4811
sg37
S'0.00'
p4812
sg39
S'325.00'
p4813
ssg41
(dp4814
g43
S'27.70'
p4815
sg45
S'21.80'
p4816
sg47
S'28.90'
p4817
sg49
S'24.70'
p4818
sg51
S'34.70'
p4819
sg53
S'68.00'
p4820
sg55
S'58.80'
p4821
sg57
S'27.80'
p4822
sg25
S'FM'
p4823
sg60
g223
sg62
S'87.00'
p4824
sg64
S'25.70'
p4825
sg66
S'134.00'
p4826
sg68
S'20.60'
p4827
sg70
S'0.00'
p4828
sg72
S'25.00'
p4829
sg74
S'38.20'
p4830
sg76
g4793
sssS'BELLA VISTA'
p4831
(dp4832
g3
(dp4833
g5
S'15.30'
p4834
sg7
S'10.30'
p4835
sg9
S'5.80'
p4836
sg11
S'10.70'
p4837
sg13
S'13.60'
p4838
sg15
S'21.10'
p4839
sg17
S'488.00'
p4840
sg19
S'76.00'
p4841
sg21
S'58.90'
p4842
sg23
S'10.80'
p4843
sg25
S'CR'
p4844
sg27
S'70.00'
p4845
sg29
S'40.00'
p4846
sg31
S'0.00'
p4847
sg33
S'28.40'
p4848
sg35
S'BELLA VISTA'
p4849
sg37
S'212.00'
p4850
sg39
S'866.00'
p4851
ssg41
(dp4852
g43
S'25.90'
p4853
sg45
S'19.80'
p4854
sg47
S'27.30'
p4855
sg49
S'21.90'
p4856
sg51
S'31.80'
p4857
sg53
S'67.00'
p4858
sg55
S'58.90'
p4859
sg57
S'25.30'
p4860
sg25
S'CR'
p4861
sg60
g376
sg62
S'70.00'
p4862
sg64
S'24.50'
p4863
sg66
S'107.00'
p4864
sg68
S'18.50'
p4865
sg70
S'0.00'
p4866
sg72
S'28.40'
p4867
sg74
S'35.30'
p4868
sg76
g4831
sssS'NUEVE DE JULIO'
p4869
(dp4870
g3
(dp4871
g5
S'9.70'
p4872
sg7
S'4.60'
p4873
sg9
S'0.10'
p4874
sg11
S'6.30'
p4875
sg13
S'10.10'
p4876
sg15
S'15.70'
p4877
sg17
S'1591.00'
p4878
sg19
S'80.00'
p4879
sg21
S'60.90'
p4880
sg23
S'5.20'
p4881
sg25
S'BAP'
p4882
sg27
S'46.00'
p4883
sg29
S'45.00'
p4884
sg31
S'0.00'
p4885
sg33
S'35.50'
p4886
sg35
S'NUEVE DE JULIO'
p4887
sg37
S'1128.00'
p4888
sg39
S'2153.00'
p4889
ssg41
(dp4890
g43
S'22.50'
p4891
sg45
S'15.30'
p4892
sg47
S'25.30'
p4893
sg49
S'18.60'
p4894
sg51
S'29.60'
p4895
sg53
S'69.00'
p4896
sg55
S'60.90'
p4897
sg57
S'21.90'
p4898
sg25
S'BAP'
p4899
sg60
g108
sg62
S'46.00'
p4900
sg64
S'21.50'
p4901
sg66
S'98.00'
p4902
sg68
S'15.90'
p4903
sg70
S'0.00'
p4904
sg72
S'35.50'
p4905
sg74
S'33.10'
p4906
sg76
g4869
sssS'VILLA REYNOLDS'
p4907
(dp4908
g3
(dp4909
g5
S'8.60'
p4910
sg7
S'0.80'
p4911
sg9
S'-3.70'
p4912
sg11
S'2.30'
p4913
sg13
S'7.80'
p4914
sg15
S'18.50'
p4915
sg17
S'1586.00'
p4916
sg19
S'69.00'
p4917
sg21
S'65.40'
p4918
sg23
S'4.10'
p4919
sg25
S'SL'
p4920
sg27
S'486.00'
p4921
sg29
S'8.00'
p4922
sg31
S'58.00'
p4923
sg33
S'33.70'
p4924
sg35
S'VILLA REYNOLDS'
p4925
sg37
S'1146.00'
p4926
sg39
S'2136.00'
p4927
ssg41
(dp4928
g43
S'22.50'
p4929
sg45
S'14.20'
p4930
sg47
S'25.30'
p4931
sg49
S'17.00'
p4932
sg51
S'30.60'
p4933
sg53
S'64.00'
p4934
sg55
S'65.40'
p4935
sg57
S'21.90'
p4936
sg25
S'SL'
p4937
sg60
g376
sg62
S'486.00'
p4938
sg64
S'21.20'
p4939
sg66
S'92.00'
p4940
sg68
S'14.50'
p4941
sg70
S'68.00'
p4942
sg72
S'33.70'
p4943
sg74
S'34.10'
p4944
sg76
g4907
sssS'SAN JUAN'
p4945
(dp4946
g3
(dp4947
g5
S'9.30'
p4948
sg7
S'3.00'
p4949
sg9
S'-1.50'
p4950
sg11
S'1.00'
p4951
sg13
S'6.80'
p4952
sg15
S'18.30'
p4953
sg17
S'1275.00'
p4954
sg19
S'61.00'
p4955
sg21
S'68.50'
p4956
sg23
S'4.80'
p4957
sg25
S'SJ'
p4958
sg27
S'615.00'
p4959
sg29
S'4.00'
p4960
sg31
S'66.00'
p4961
sg33
S'31.60'
p4962
sg35
S'SAN JUAN'
p4963
sg37
S'896.00'
p4964
sg39
S'1703.00'
p4965
ssg41
(dp4966
g43
S'25.50'
p4967
sg45
S'18.40'
p4968
sg47
S'27.60'
p4969
sg49
S'15.20'
p4970
sg51
S'33.60'
p4971
sg53
S'48.00'
p4972
sg55
S'68.50'
p4973
sg57
S'25.50'
p4974
sg25
S'SJ'
p4975
sg60
g376
sg62
S'615.00'
p4976
sg64
S'23.60'
p4977
sg66
S'15.00'
p4978
sg68
S'12.80'
p4979
sg70
S'77.00'
p4980
sg72
S'31.60'
p4981
sg74
S'37.10'
p4982
sg76
g4945
sssS'MACACHIN'
p4983
(dp4984
g3
(dp4985
g5
S'8.20'
p4986
sg7
S'1.80'
p4987
sg9
S'-2.70'
p4988
sg11
S'2.20'
p4989
sg13
S'7.70'
p4990
sg15
S'15.40'
p4991
sg17
S'1880.00'
p4992
sg19
S'71.00'
p4993
sg21
S'63.70'
p4994
sg23
S'3.70'
p4995
sg25
S'LP'
p4996
sg27
S'172.00'
p4997
sg29
S'19.00'
p4998
sg31
S'0.00'
p4999
sg33
S'37.10'
p5000
sg35
S'MACACHIN'
p5001
sg37
S'1407.00'
p5002
sg39
S'2450.00'
p5003
ssg41
(dp5004
g43
S'22.50'
p5005
sg45
S'13.90'
p5006
sg47
S'25.30'
p5007
sg49
S'14.00'
p5008
sg51
S'30.80'
p5009
sg53
S'54.00'
p5010
sg55
S'63.70'
p5011
sg57
S'21.90'
p5012
sg25
S'LP'
p5013
sg60
g108
sg62
S'172.00'
p5014
sg64
S'21.00'
p5015
sg66
S'70.00'
p5016
sg68
S'11.10'
p5017
sg70
S'0.00'
p5018
sg72
S'37.10'
p5019
sg74
S'34.30'
p5020
sg76
g4983
sssS'SAN JUAN (AERO)'
p5021
(dp5022
g3
(dp5023
g5
S'8.30'
p5024
sg7
S'0.30'
p5025
sg9
S'-4.20'
p5026
sg11
S'-1.60'
p5027
sg13
S'5.70'
p5028
sg15
S'18.00'
p5029
sg17
S'1449.00'
p5030
sg19
S'55.00'
p5031
sg21
S'68.40'
p5032
sg23
S'3.80'
p5033
sg25
S'SJ'
p5034
sg27
S'598.00'
p5035
sg29
S'2.00'
p5036
sg31
S'72.00'
p5037
sg33
S'31.60'
p5038
sg35
S'SAN JUAN (AERO)'
p5039
sg37
S'1042.00'
p5040
sg39
S'1877.00'
p5041
ssg41
(dp5042
g43
S'26.40'
p5043
sg45
S'18.00'
p5044
sg47
S'27.80'
p5045
sg49
S'13.30'
p5046
sg51
S'34.50'
p5047
sg53
S'40.00'
p5048
sg55
S'68.40'
p5049
sg57
S'25.80'
p5050
sg25
S'SJ'
p5051
sg60
g376
sg62
S'598.00'
p5052
sg64
S'24.10'
p5053
sg66
S'16.00'
p5054
sg68
S'10.50'
p5055
sg70
S'79.00'
p5056
sg72
S'31.60'
p5057
sg74
S'38.00'
p5058
sg76
g5021
sssS'LA QUIACA'
p5059
(dp5060
g3
(dp5061
g5
S'4.70'
p5062
sg7
S'-6.60'
p5063
sg9
S'-11.10'
p5064
sg11
S'-13.80'
p5065
sg13
S'2.50'
p5066
sg15
S'15.80'
p5067
sg17
S'3709.00'
p5068
sg19
S'29.00'
p5069
sg21
S'65.60'
p5070
sg23
S'0.20'
p5071
sg25
S'JJ'
p5072
sg27
S'3459.00'
p5073
sg29
S'0.00'
p5074
sg31
S'87.00'
p5075
sg33
S'22.10'
p5076
sg35
S'LA QUIACA'
p5077
sg37
S'2979.00'
p5078
sg39
S'4439.00'
p5079
ssg41
(dp5080
g43
S'12.40'
p5081
sg45
S'6.80'
p5082
sg47
S'19.70'
p5083
sg49
S'8.50'
p5084
sg51
S'20.40'
p5085
sg53
S'63.00'
p5086
sg55
S'65.60'
p5087
sg57
S'13.10'
p5088
sg25
S'JJ'
p5089
sg60
g376
sg62
S'3459.00'
p5090
sg64
S'13.80'
p5091
sg66
S'70.00'
p5092
sg68
S'4.30'
p5093
sg70
S'66.00'
p5094
sg72
S'22.10'
p5095
sg74
S'23.90'
p5096
sg76
g5059
sssS'JACHAL'
p5097
(dp5098
g3
(dp5099
g5
S'9.20'
p5100
sg7
S'0.40'
p5101
sg9
S'-4.10'
p5102
sg11
S'0.80'
p5103
sg13
S'6.80'
p5104
sg15
S'18.10'
p5105
sg17
S'1641.00'
p5106
sg19
S'60.00'
p5107
sg21
S'68.80'
p5108
sg23
S'4.70'
p5109
sg25
S'SJ'
p5110
sg27
S'1165.00'
p5111
sg29
S'4.00'
p5112
sg31
S'61.00'
p5113
sg33
S'30.30'
p5114
sg35
S'JACHAL'
p5115
sg37
S'1209.00'
p5116
sg39
S'2173.00'
p5117
ssg41
(dp5118
g43
S'23.60'
p5119
sg45
S'16.10'
p5120
sg47
S'26.00'
p5121
sg49
S'15.80'
p5122
sg51
S'31.20'
p5123
sg53
S'55.00'
p5124
sg55
S'68.80'
p5125
sg57
S'23.10'
p5126
sg25
S'SJ'
p5127
sg60
g376
sg62
S'1165.00'
p5128
sg64
S'22.20'
p5129
sg66
S'21.00'
p5130
sg68
S'13.40'
p5131
sg70
S'68.00'
p5132
sg72
S'30.30'
p5133
sg74
S'34.70'
p5134
sg76
g5097
sssS'CERRO AZUL'
p5135
(dp5136
g3
(dp5137
g5
S'16.20'
p5138
sg7
S'11.30'
p5139
sg9
S'6.80'
p5140
sg11
S'11.60'
p5141
sg13
S'14.20'
p5142
sg15
S'21.60'
p5143
sg17
S'413.00'
p5144
sg19
S'76.00'
p5145
sg21
S'55.40'
p5146
sg23
S'11.70'
p5147
sg25
S'MS'
p5148
sg27
S'270.00'
p5149
sg29
S'120.00'
p5150
sg31
S'0.00'
p5151
sg33
S'27.70'
p5152
sg35
S'CERRO AZUL'
p5153
sg37
S'142.00'
p5154
sg39
S'797.00'
p5155
ssg41
(dp5156
g43
S'24.70'
p5157
sg45
S'19.20'
p5158
sg47
S'26.90'
p5159
sg49
S'22.00'
p5160
sg51
S'31.00'
p5161
sg53
S'72.00'
p5162
sg55
S'55.40'
p5163
sg57
S'24.60'
p5164
sg25
S'MS'
p5165
sg60
g223
sg62
S'270.00'
p5166
sg64
S'23.60'
p5167
sg66
S'169.00'
p5168
sg68
S'18.70'
p5169
sg70
S'0.00'
p5170
sg72
S'27.70'
p5171
sg74
S'34.50'
p5172
sg76
g5135
sssS'RESISTENCIA'
p5173
(dp5174
g3
(dp5175
g5
S'15.50'
p5176
sg7
S'10.40'
p5177
sg9
S'5.90'
p5178
sg11
S'11.10'
p5179
sg13
S'13.90'
p5180
sg15
S'22.20'
p5181
sg17
S'385.00'
p5182
sg19
S'78.00'
p5183
sg21
S'59.10'
p5184
sg23
S'11.00'
p5185
sg25
S'CHC'
p5186
sg27
S'52.00'
p5187
sg29
S'48.00'
p5188
sg31
S'43.00'
p5189
sg33
S'27.50'
p5190
sg35
S'RESISTENCIA'
p5191
sg37
S'156.00'
p5192
sg39
S'713.00'
p5193
ssg41
(dp5194
g43
S'25.90'
p5195
sg45
S'20.10'
p5196
sg47
S'27.60'
p5197
sg49
S'22.80'
p5198
sg51
S'32.40'
p5199
sg53
S'70.00'
p5200
sg55
S'59.10'
p5201
sg57
S'25.80'
p5202
sg25
S'CHC'
p5203
sg60
g223
sg62
S'52.00'
p5204
sg64
S'24.50'
p5205
sg66
S'157.00'
p5206
sg68
S'19.20'
p5207
sg70
S'55.00'
p5208
sg72
S'27.50'
p5209
sg74
S'35.90'
p5210
sg76
g5173
sssS'LA PLATA OBS'
p5211
(dp5212
g3
(dp5213
g5
S'10.20'
p5214
sg7
S'6.90'
p5215
sg9
S'2.40'
p5216
sg11
S'7.90'
p5217
sg13
S'11.10'
p5218
sg15
S'15.20'
p5219
sg17
S'1448.00'
p5220
sg19
S'84.00'
p5221
sg21
S'57.90'
p5222
sg23
S'5.70'
p5223
sg25
S'BAP'
p5224
sg27
S'15.00'
p5225
sg29
S'68.00'
p5226
sg31
S'45.00'
p5227
sg33
S'35.00'
p5228
sg35
S'LA PLATA OBS'
p5229
sg37
S'992.00'
p5230
sg39
S'2043.00'
p5231
ssg41
(dp5232
g43
S'21.80'
p5233
sg45
S'16.10'
p5234
sg47
S'24.90'
p5235
sg49
S'18.90'
p5236
sg51
S'27.80'
p5237
sg53
S'72.00'
p5238
sg55
S'57.90'
p5239
sg57
S'21.50'
p5240
sg25
S'BAP'
p5241
sg60
g108
sg62
S'15.00'
p5242
sg64
S'21.40'
p5243
sg66
S'85.00'
p5244
sg68
S'16.20'
p5245
sg70
S'66.00'
p5246
sg72
S'35.00'
p5247
sg74
S'31.30'
p5248
sg76
g5211
sssS'GENERAL PAZ'
p5249
(dp5250
g3
(dp5251
g5
S'16.10'
p5252
sg7
S'11.40'
p5253
sg9
S'6.90'
p5254
sg11
S'12.10'
p5255
sg13
S'14.70'
p5256
sg15
S'22.30'
p5257
sg17
S'332.00'
p5258
sg19
S'79.00'
p5259
sg21
S'57.60'
p5260
sg23
S'11.60'
p5261
sg25
S'CR'
p5262
sg27
S'74.00'
p5263
sg29
S'61.00'
p5264
sg31
S'0.00'
p5265
sg33
S'27.80'
p5266
sg35
S'GENERAL PAZ'
p5267
sg37
S'105.00'
p5268
sg39
S'662.00'
p5269
ssg41
(dp5270
g43
S'25.90'
p5271
sg45
S'19.90'
p5272
sg47
S'27.50'
p5273
sg49
S'23.90'
p5274
sg51
S'32.40'
p5275
sg53
S'73.00'
p5276
sg55
S'57.60'
p5277
sg57
S'25.70'
p5278
sg25
S'CR'
p5279
sg60
g376
sg62
S'74.00'
p5280
sg64
S'24.40'
p5281
sg66
S'149.00'
p5282
sg68
S'20.10'
p5283
sg70
S'0.00'
p5284
sg72
S'27.80'
p5285
sg74
S'35.90'
p5286
sg76
g5249
sssS'PEHUAJO'
p5287
(dp5288
g3
(dp5289
g5
S'8.70'
p5290
sg7
S'3.30'
p5291
sg9
S'-1.20'
p5292
sg11
S'4.90'
p5293
sg13
S'9.20'
p5294
sg15
S'15.40'
p5295
sg17
S'1782.00'
p5296
sg19
S'79.00'
p5297
sg21
S'61.90'
p5298
sg23
S'4.20'
p5299
sg25
S'BAP'
p5300
sg27
S'87.00'
p5301
sg29
S'33.00'
p5302
sg31
S'48.00'
p5303
sg33
S'35.90'
p5304
sg35
S'PEHUAJO'
p5305
sg37
S'1296.00'
p5306
sg39
S'2358.00'
p5307
ssg41
(dp5308
g43
S'22.10'
p5309
sg45
S'14.40'
p5310
sg47
S'25.20'
p5311
sg49
S'16.20'
p5312
sg51
S'30.00'
p5313
sg53
S'63.00'
p5314
sg55
S'61.90'
p5315
sg57
S'21.70'
p5316
sg25
S'BAP'
p5317
sg60
g108
sg62
S'87.00'
p5318
sg64
S'20.90'
p5319
sg66
S'87.00'
p5320
sg68
S'13.60'
p5321
sg70
S'71.00'
p5322
sg72
S'35.90'
p5323
sg74
S'33.50'
p5324
sg76
g5287
sssS'TUCUMAN'
p5325
(dp5326
g3
(dp5327
g5
S'12.90'
p5328
sg7
S'6.70'
p5329
sg9
S'2.20'
p5330
sg11
S'7.60'
p5331
sg13
S'10.90'
p5332
sg15
S'20.00'
p5333
sg17
S'797.00'
p5334
sg19
S'73.00'
p5335
sg21
S'65.20'
p5336
sg23
S'8.40'
p5337
sg25
S'TC'
p5338
sg27
S'481.00'
p5339
sg29
S'12.00'
p5340
sg31
S'59.00'
p5341
sg33
S'26.80'
p5342
sg35
S'TUCUMAN'
p5343
sg37
S'481.00'
p5344
sg39
S'1204.00'
p5345
ssg41
(dp5346
g43
S'23.90'
p5347
sg45
S'18.80'
p5348
sg47
S'26.40'
p5349
sg49
S'22.60'
p5350
sg51
S'30.10'
p5351
sg53
S'76.00'
p5352
sg55
S'65.20'
p5353
sg57
S'24.00'
p5354
sg25
S'TC'
p5355
sg60
g376
sg62
S'481.00'
p5356
sg64
S'23.10'
p5357
sg66
S'172.00'
p5358
sg68
S'19.30'
p5359
sg70
S'53.00'
p5360
sg72
S'26.80'
p5361
sg74
S'33.60'
p5362
sg76
g5325
sssS'CHILECITO'
p5363
(dp5364
g3
(dp5365
g5
S'10.30'
p5366
sg7
S'3.00'
p5367
sg9
S'-1.50'
p5368
sg11
S'2.00'
p5369
sg13
S'7.40'
p5370
sg15
S'17.90'
p5371
sg17
S'1338.00'
p5372
sg19
S'59.00'
p5373
sg21
S'67.50'
p5374
sg23
S'5.80'
p5375
sg25
S'LR'
p5376
sg27
S'1170.00'
p5377
sg29
S'5.00'
p5378
sg31
S'0.00'
p5379
sg33
S'29.20'
p5380
sg35
S'CHILECITO'
p5381
sg37
S'922.00'
p5382
sg39
S'1808.00'
p5383
ssg41
(dp5384
g43
S'23.40'
p5385
sg45
S'16.50'
p5386
sg47
S'26.20'
p5387
sg49
S'17.50'
p5388
sg51
S'31.10'
p5389
sg53
S'60.00'
p5390
sg55
S'67.50'
p5391
sg57
S'23.30'
p5392
sg25
S'LR'
p5393
sg60
g108
sg62
S'1170.00'
p5394
sg64
S'22.10'
p5395
sg66
S'33.00'
p5396
sg68
S'15.00'
p5397
sg70
S'0.00'
p5398
sg72
S'29.20'
p5399
sg74
S'34.60'
p5400
sg76
g5363
sssS'TANDIL'
p5401
(dp5402
g3
(dp5403
g5
S'7.70'
p5404
sg7
S'3.20'
p5405
sg9
S'-1.30'
p5406
sg11
S'4.50'
p5407
sg13
S'8.80'
p5408
sg15
S'13.30'
p5409
sg17
S'2226.00'
p5410
sg19
S'82.00'
p5411
sg21
S'59.30'
p5412
sg23
S'3.20'
p5413
sg25
S'BAP'
p5414
sg27
S'175.00'
p5415
sg29
S'50.00'
p5416
sg31
S'45.00'
p5417
sg33
S'37.20'
p5418
sg35
S'TANDIL'
p5419
sg37
S'1654.00'
p5420
sg39
S'3939.00'
p5421
ssg41
(dp5422
g43
S'19.80'
p5423
sg45
S'13.00'
p5424
sg47
S'23.60'
p5425
sg49
S'15.90'
p5426
sg51
S'26.80'
p5427
sg53
S'70.00'
p5428
sg55
S'59.30'
p5429
sg57
S'19.40'
p5430
sg25
S'BAP'
p5431
sg60
g108
sg62
S'175.00'
p5432
sg64
S'19.50'
p5433
sg66
S'103.00'
p5434
sg68
S'13.40'
p5435
sg70
S'57.00'
p5436
sg72
S'37.20'
p5437
sg74
S'30.30'
p5438
sg76
g5401
sssS'JUNIN'
p5439
(dp5440
g3
(dp5441
g5
S'9.40'
p5442
sg7
S'4.30'
p5443
sg9
S'-0.20'
p5444
sg11
S'5.70'
p5445
sg13
S'9.80'
p5446
sg15
S'15.80'
p5447
sg17
S'1606.00'
p5448
sg19
S'80.00'
p5449
sg21
S'61.00'
p5450
sg23
S'4.90'
p5451
sg25
S'BAP'
p5452
sg27
S'81.00'
p5453
sg29
S'32.00'
p5454
sg31
S'48.00'
p5455
sg33
S'34.60'
p5456
sg35
S'JUNIN'
p5457
sg37
S'1148.00'
p5458
sg39
S'2169.00'
p5459
ssg41
(dp5460
g43
S'22.30'
p5461
sg45
S'15.10'
p5462
sg47
S'25.30'
p5463
sg49
S'17.20'
p5464
sg51
S'29.90'
p5465
sg53
S'65.00'
p5466
sg55
S'61.00'
p5467
sg57
S'22.00'
p5468
sg25
S'BAP'
p5469
sg60
g108
sg62
S'81.00'
p5470
sg64
S'21.20'
p5471
sg66
S'88.00'
p5472
sg68
S'14.70'
p5473
sg70
S'65.00'
p5474
sg72
S'34.60'
p5475
sg74
S'33.40'
p5476
sg76
g5439
sssS'CABO RASO'
p5477
(dp5478
g3
(dp5479
g5
S'7.20'
p5480
sg7
S'2.40'
p5481
sg9
S'-2.10'
p5482
sg11
S'2.20'
p5483
sg13
S'7.40'
p5484
sg15
S'11.60'
p5485
sg17
S'2989.00'
p5486
sg19
S'72.00'
p5487
sg21
S'65.20'
p5488
sg23
S'2.70'
p5489
sg25
S'CHB'
p5490
sg27
S'9.00'
p5491
sg29
S'19.00'
p5492
sg31
S'0.00'
p5493
sg33
S'44.40'
p5494
sg35
S'CABO RASO'
p5495
sg37
S'2259.00'
p5496
sg39
S'3719.00'
p5497
ssg41
(dp5498
g43
S'16.20'
p5499
sg45
S'11.00'
p5500
sg47
S'21.40'
p5501
sg49
S'11.20'
p5502
sg51
S'22.00'
p5503
sg53
S'61.00'
p5504
sg55
S'65.20'
p5505
sg57
S'16.00'
p5506
sg25
S'CHB'
p5507
sg60
g453
sg62
S'9.00'
p5508
sg64
S'17.20'
p5509
sg66
S'11.00'
p5510
sg68
S'8.00'
p5511
sg70
S'0.00'
p5512
sg72
S'44.40'
p5513
sg74
S'25.50'
p5514
sg76
g5477
sssS'LA RIOJA'
p5515
(dp5516
g3
(dp5517
g5
S'12.20'
p5518
sg7
S'4.90'
p5519
sg9
S'0.40'
p5520
sg11
S'3.70'
p5521
sg13
S'8.40'
p5522
sg15
S'21.00'
p5523
sg17
S'786.00'
p5524
sg19
S'60.00'
p5525
sg21
S'66.80'
p5526
sg23
S'7.70'
p5527
sg25
S'LR'
p5528
sg27
S'430.00'
p5529
sg29
S'4.00'
p5530
sg31
S'66.00'
p5531
sg33
S'29.40'
p5532
sg35
S'LA RIOJA'
p5533
sg37
S'495.00'
p5534
sg39
S'1101.00'
p5535
ssg41
(dp5536
g43
S'27.30'
p5537
sg45
S'20.40'
p5538
sg47
S'28.70'
p5539
sg49
S'19.20'
p5540
sg51
S'35.30'
p5541
sg53
S'56.00'
p5542
sg55
S'66.80'
p5543
sg57
S'27.40'
p5544
sg25
S'LR'
p5545
sg60
g108
sg62
S'430.00'
p5546
sg64
S'25.10'
p5547
sg66
S'53.00'
p5548
sg68
S'16.50'
p5549
sg70
S'63.00'
p5550
sg72
S'29.40'
p5551
sg74
S'38.80'
p5552
sg76
g5515
sssS'QUEMUQUEMU'
p5553
(dp5554
g3
(dp5555
g5
S'8.60'
p5556
sg7
S'2.70'
p5557
sg9
S'-1.80'
p5558
sg11
S'2.60'
p5559
sg13
S'7.90'
p5560
sg15
S'15.90'
p5561
sg17
S'1681.00'
p5562
sg19
S'71.00'
p5563
sg21
S'63.60'
p5564
sg23
S'4.10'
p5565
sg25
S'LP'
p5566
sg27
S'120.00'
p5567
sg29
S'18.00'
p5568
sg31
S'0.00'
p5569
sg33
S'36.10'
p5570
sg35
S'QUEMUQUEMU'
p5571
sg37
S'1244.00'
p5572
sg39
S'2231.00'
p5573
ssg41
(dp5574
g43
S'23.20'
p5575
sg45
S'15.30'
p5576
sg47
S'25.90'
p5577
sg49
S'14.50'
p5578
sg51
S'31.30'
p5579
sg53
S'54.00'
p5580
sg55
S'63.60'
p5581
sg57
S'22.80'
p5582
sg25
S'LP'
p5583
sg60
g108
sg62
S'120.00'
p5584
sg64
S'21.80'
p5585
sg66
S'73.00'
p5586
sg68
S'11.70'
p5587
sg70
S'0.00'
p5588
sg72
S'36.10'
p5589
sg74
S'34.80'
p5590
sg76
g5553
sssS'BARILOCHE'
p5591
(dp5592
g3
(dp5593
g5
S'2.50'
p5594
sg7
S'-1.10'
p5595
sg9
S'-5.60'
p5596
sg11
S'0.00'
p5597
sg13
S'6.30'
p5598
sg15
S'7.00'
p5599
sg17
S'4411.00'
p5600
sg19
S'84.00'
p5601
sg21
S'71.20'
p5602
sg23
S'-2.00'
p5603
sg25
S'RN'
p5604
sg27
S'836.00'
p5605
sg29
S'124.00'
p5606
sg31
S'41.00'
p5607
sg33
S'41.20'
p5608
sg35
S'BARILOCHE'
p5609
sg37
S'3681.00'
p5610
sg39
S'5141.00'
p5611
ssg41
(dp5612
g43
S'13.20'
p5613
sg45
S'5.60'
p5614
sg47
S'19.30'
p5615
sg49
S'9.10'
p5616
sg51
S'20.40'
p5617
sg53
S'62.00'
p5618
sg55
S'71.20'
p5619
sg57
S'12.50'
p5620
sg25
S'RN'
p5621
sg60
g61
sg62
S'836.00'
p5622
sg64
S'14.20'
p5623
sg66
S'30.00'
p5624
sg68
S'5.40'
p5625
sg70
S'72.00'
p5626
sg72
S'41.20'
p5627
sg74
S'23.90'
p5628
sg76
g5591
sssS'PQUE PEREYRA'
p5629
(dp5630
g3
(dp5631
g5
S'10.20'
p5632
sg7
S'5.90'
p5633
sg9
S'1.40'
p5634
sg11
S'7.10'
p5635
sg13
S'10.60'
p5636
sg15
S'15.00'
p5637
sg17
S'1610.00'
p5638
sg19
S'81.00'
p5639
sg21
S'58.20'
p5640
sg23
S'5.70'
p5641
sg25
S'BAP'
p5642
sg27
S'12.00'
p5643
sg29
S'63.00'
p5644
sg31
S'0.00'
p5645
sg33
S'34.90'
p5646
sg35
S'PQUE PEREYRA'
p5647
sg37
S'1133.00'
p5648
sg39
S'2188.00'
p5649
ssg41
(dp5650
g43
S'22.00'
p5651
sg45
S'15.90'
p5652
sg47
S'25.00'
p5653
sg49
S'19.10'
p5654
sg51
S'28.30'
p5655
sg53
S'72.00'
p5656
sg55
S'58.20'
p5657
sg57
S'21.60'
p5658
sg25
S'BAP'
p5659
sg60
g108
sg62
S'12.00'
p5660
sg64
S'21.40'
p5661
sg66
S'86.00'
p5662
sg68
S'16.40'
p5663
sg70
S'0.00'
p5664
sg72
S'34.90'
p5665
sg74
S'31.80'
p5666
sg76
g5629
sssS'ISLA MARTIN GARCIA'
p5667
(dp5668
g3
(dp5669
g5
S'11.80'
p5670
sg7
S'8.10'
p5671
sg9
S'3.60'
p5672
sg11
S'8.20'
p5673
sg13
S'11.20'
p5674
sg15
S'15.90'
p5675
sg17
S'1201.00'
p5676
sg19
S'80.00'
p5677
sg21
S'58.30'
p5678
sg23
S'7.30'
p5679
sg25
S'BAP'
p5680
sg27
S'36.00'
p5681
sg29
S'59.00'
p5682
sg31
S'41.00'
p5683
sg33
S'34.20'
p5684
sg35
S'ISLA MARTIN GARCIA'
p5685
sg37
S'772.00'
p5686
sg39
S'1719.00'
p5687
ssg41
(dp5688
g43
S'23.30'
p5689
sg45
S'18.40'
p5690
sg47
S'25.80'
p5691
sg49
S'19.30'
p5692
sg51
S'28.60'
p5693
sg53
S'68.00'
p5694
sg55
S'58.30'
p5695
sg57
S'23.00'
p5696
sg25
S'BAP'
p5697
sg60
g108
sg62
S'36.00'
p5698
sg64
S'22.80'
p5699
sg66
S'78.00'
p5700
sg68
S'16.50'
p5701
sg70
S'57.00'
p5702
sg72
S'34.20'
p5703
sg74
S'32.10'
p5704
sg76
g5667
sssS'SAN FRANCISCO'
p5705
(dp5706
g3
(dp5707
g5
S'17.00'
p5708
sg7
S'11.80'
p5709
sg9
S'7.30'
p5710
sg11
S'12.40'
p5711
sg13
S'15.10'
p5712
sg15
S'24.00'
p5713
sg17
S'193.00'
p5714
sg19
S'77.00'
p5715
sg21
S'58.70'
p5716
sg23
S'12.50'
p5717
sg25
S'FM'
p5718
sg27
S'75.00'
p5719
sg29
S'39.00'
p5720
sg31
S'0.00'
p5721
sg33
S'26.20'
p5722
sg35
S'SAN FRANCISCO'
p5723
sg37
S'25.00'
p5724
sg39
S'473.00'
p5725
ssg41
(dp5726
g43
S'27.00'
p5727
sg45
S'20.60'
p5728
sg47
S'28.50'
p5729
sg49
S'24.40'
p5730
sg51
S'34.60'
p5731
sg53
S'70.00'
p5732
sg55
S'58.70'
p5733
sg57
S'27.10'
p5734
sg25
S'FM'
p5735
sg60
g223
sg62
S'75.00'
p5736
sg64
S'25.10'
p5737
sg66
S'163.00'
p5738
sg68
S'20.40'
p5739
sg70
S'0.00'
p5740
sg72
S'26.20'
p5741
sg74
S'38.10'
p5742
sg76
g5705
sssS'FORMOSA'
p5743
(dp5744
g3
(dp5745
g5
S'17.20'
p5746
sg7
S'12.20'
p5747
sg9
S'7.70'
p5748
sg11
S'12.50'
p5749
sg13
S'15.20'
p5750
sg15
S'23.30'
p5751
sg17
S'205.00'
p5752
sg19
S'76.00'
p5753
sg21
S'58.20'
p5754
sg23
S'12.70'
p5755
sg25
S'FM'
p5756
sg27
S'60.00'
p5757
sg29
S'58.00'
p5758
sg31
S'57.00'
p5759
sg33
S'26.20'
p5760
sg35
S'FORMOSA'
p5761
sg37
S'21.00'
p5762
sg39
S'481.00'
p5763
ssg41
(dp5764
g43
S'26.60'
p5765
sg45
S'21.20'
p5766
sg47
S'28.10'
p5767
sg49
S'24.50'
p5768
sg51
S'33.00'
p5769
sg53
S'71.00'
p5770
sg55
S'58.20'
p5771
sg57
S'26.60'
p5772
sg25
S'FM'
p5773
sg60
g223
sg62
S'60.00'
p5774
sg64
S'25.10'
p5775
sg66
S'159.00'
p5776
sg68
S'20.50'
p5777
sg70
S'67.00'
p5778
sg72
S'26.20'
p5779
sg74
S'36.50'
p5780
sg76
g5743
sssS'GUALEGUAYCHU (AERO)'
p5781
(dp5782
g3
(dp5783
g5
S'11.30'
p5784
sg7
S'6.20'
p5785
sg9
S'1.70'
p5786
sg11
S'7.90'
p5787
sg13
S'11.20'
p5788
sg15
S'17.20'
p5789
sg17
S'1250.00'
p5790
sg19
S'81.00'
p5791
sg21
S'58.60'
p5792
sg23
S'6.80'
p5793
sg25
S'ER'
p5794
sg27
S'24.00'
p5795
sg29
S'56.00'
p5796
sg31
S'44.00'
p5797
sg33
S'33.00'
p5798
sg35
S'GUALEGUAYCHU (AERO)'
p5799
sg37
S'822.00'
p5800
sg39
S'1751.00'
p5801
ssg41
(dp5802
g43
S'23.70'
p5803
sg45
S'16.70'
p5804
sg47
S'26.00'
p5805
sg49
S'18.10'
p5806
sg51
S'30.60'
p5807
sg53
S'64.00'
p5808
sg55
S'58.60'
p5809
sg57
S'23.20'
p5810
sg25
S'ER'
p5811
sg60
g376
sg62
S'24.00'
p5812
sg64
S'22.50'
p5813
sg66
S'92.00'
p5814
sg68
S'15.50'
p5815
sg70
S'63.00'
p5816
sg72
S'33.00'
p5817
sg74
S'34.10'
p5818
sg76
g5781
sssS'HUERTA GRANDE'
p5819
(dp5820
g3
(dp5821
g5
S'9.10'
p5822
sg7
S'4.50'
p5823
sg9
S'0.00'
p5824
sg11
S'3.60'
p5825
sg13
S'8.20'
p5826
sg15
S'15.50'
p5827
sg17
S'1844.00'
p5828
sg19
S'71.00'
p5829
sg21
S'64.50'
p5830
sg23
S'4.60'
p5831
sg25
S'CD'
p5832
sg27
S'1015.00'
p5833
sg29
S'4.00'
p5834
sg31
S'0.00'
p5835
sg33
S'31.10'
p5836
sg35
S'HUERTA GRANDE'
p5837
sg37
S'1281.00'
p5838
sg39
S'2555.00'
p5839
ssg41
(dp5840
g43
S'19.20'
p5841
sg45
S'13.80'
p5842
sg47
S'23.70'
p5843
sg49
S'16.10'
p5844
sg51
S'26.20'
p5845
sg53
S'73.00'
p5846
sg55
S'64.50'
p5847
sg57
S'19.50'
p5848
sg25
S'CD'
p5849
sg60
g108
sg62
S'1015.00'
p5850
sg64
S'19.20'
p5851
sg66
S'105.00'
p5852
sg68
S'13.80'
p5853
sg70
S'0.00'
p5854
sg72
S'31.10'
p5855
sg74
S'29.70'
p5856
sg76
g5819
sssS'EL BALDE'
p5857
(dp5858
g3
(dp5859
g5
S'8.80'
p5860
sg7
S'-1.40'
p5861
sg9
S'-5.90'
p5862
sg11
S'-2.10'
p5863
sg13
S'5.50'
p5864
sg15
S'18.10'
p5865
sg17
S'1625.00'
p5866
sg19
S'50.00'
p5867
sg21
S'68.60'
p5868
sg23
S'4.30'
p5869
sg25
S'SJ'
p5870
sg27
S'928.00'
p5871
sg29
S'2.00'
p5872
sg31
S'0.00'
p5873
sg33
S'31.00'
p5874
sg35
S'EL BALDE'
p5875
sg37
S'1197.00'
p5876
sg39
S'2082.00'
p5877
ssg41
(dp5878
g43
S'25.60'
p5879
sg45
S'17.20'
p5880
sg47
S'26.90'
p5881
sg49
S'13.00'
p5882
sg51
S'32.70'
p5883
sg53
S'40.00'
p5884
sg55
S'68.60'
p5885
sg57
S'24.50'
p5886
sg25
S'SJ'
p5887
sg60
g376
sg62
S'928.00'
p5888
sg64
S'23.70'
p5889
sg66
S'14.00'
p5890
sg68
S'10.20'
p5891
sg70
S'0.00'
p5892
sg72
S'31.00'
p5893
sg74
S'36.20'
p5894
sg76
g5857
sssS'CATAMARCA'
p5895
(dp5896
g3
(dp5897
g5
S'12.60'
p5898
sg7
S'5.80'
p5899
sg9
S'1.30'
p5900
sg11
S'4.00'
p5901
sg13
S'8.50'
p5902
sg15
S'21.00'
p5903
sg17
S'730.00'
p5904
sg19
S'60.00'
p5905
sg21
S'65.80'
p5906
sg23
S'8.10'
p5907
sg25
S'CA'
p5908
sg27
S'531.00'
p5909
sg29
S'5.00'
p5910
sg31
S'51.00'
p5911
sg33
S'28.50'
p5912
sg35
S'CATAMARCA'
p5913
sg37
S'447.00'
p5914
sg39
S'1053.00'
p5915
ssg41
(dp5916
g43
S'26.80'
p5917
sg45
S'21.00'
p5918
sg47
S'28.10'
p5919
sg49
S'18.30'
p5920
sg51
S'33.00'
p5921
sg53
S'54.00'
p5922
sg55
S'65.80'
p5923
sg57
S'26.50'
p5924
sg25
S'CA'
p5925
sg60
g453
sg62
S'531.00'
p5926
sg64
S'25.20'
p5927
sg66
S'69.00'
p5928
sg68
S'15.80'
p5929
sg70
S'53.00'
p5930
sg72
S'28.50'
p5931
sg74
S'36.50'
p5932
sg76
g5895
sssS'CORRIENTES (AERO)'
p5933
(dp5934
g3
(dp5935
g5
S'15.80'
p5936
sg7
S'10.60'
p5937
sg9
S'6.10'
p5938
sg11
S'11.30'
p5939
sg13
S'14.00'
p5940
sg15
S'22.20'
p5941
sg17
S'390.00'
p5942
sg19
S'77.00'
p5943
sg21
S'58.80'
p5944
sg23
S'11.30'
p5945
sg25
S'CR'
p5946
sg27
S'62.00'
p5947
sg29
S'41.00'
p5948
sg31
S'56.00'
p5949
sg33
S'27.50'
p5950
sg35
S'CORRIENTES (AERO)'
p5951
sg37
S'150.00'
p5952
sg39
S'738.00'
p5953
ssg41
(dp5954
g43
S'26.00'
p5955
sg45
S'20.20'
p5956
sg47
S'27.60'
p5957
sg49
S'23.00'
p5958
sg51
S'32.20'
p5959
sg53
S'70.00'
p5960
sg55
S'58.80'
p5961
sg57
S'25.70'
p5962
sg25
S'CR'
p5963
sg60
g376
sg62
S'62.00'
p5964
sg64
S'24.60'
p5965
sg66
S'151.00'
p5966
sg68
S'19.30'
p5967
sg70
S'67.00'
p5968
sg72
S'27.50'
p5969
sg74
S'35.70'
p5970
sg76
g5933
sssS'SALTA'
p5971
(dp5972
g3
(dp5973
g5
S'10.80'
p5974
sg7
S'3.70'
p5975
sg9
S'-0.80'
p5976
sg11
S'3.90'
p5977
sg13
S'8.50'
p5978
sg15
S'20.50'
p5979
sg17
S'1126.00'
p5980
sg19
S'69.00'
p5981
sg21
S'65.50'
p5982
sg23
S'6.30'
p5983
sg25
S'ST'
p5984
sg27
S'1226.00'
p5985
sg29
S'3.00'
p5986
sg31
S'49.00'
p5987
sg33
S'24.90'
p5988
sg35
S'SALTA'
p5989
sg37
S'703.00'
p5990
sg39
S'1703.00'
p5991
ssg41
(dp5992
g43
S'20.80'
p5993
sg45
S'15.80'
p5994
sg47
S'24.50'
p5995
sg49
S'18.40'
p5996
sg51
S'27.10'
p5997
sg53
S'77.00'
p5998
sg55
S'65.50'
p5999
sg57
S'20.90'
p6000
sg25
S'ST'
p6001
sg60
g376
sg62
S'1226.00'
p6002
sg64
S'20.70'
p6003
sg66
S'151.00'
p6004
sg68
S'16.10'
p6005
sg70
S'40.00'
p6006
sg72
S'24.90'
p6007
sg74
S'30.60'
p6008
sg76
g5971
sssS'ITUZAINGO'
p6009
(dp6010
g3
(dp6011
g5
S'16.70'
p6012
sg7
S'10.70'
p6013
sg9
S'6.20'
p6014
sg11
S'13.20'
p6015
sg13
S'15.80'
p6016
sg15
S'22.10'
p6017
sg17
S'427.00'
p6018
sg19
S'80.00'
p6019
sg21
S'56.70'
p6020
sg23
S'12.20'
p6021
sg25
S'CR'
p6022
sg27
S'80.00'
p6023
sg29
S'92.00'
p6024
sg31
S'0.00'
p6025
sg33
S'27.60'
p6026
sg35
S'ITUZAINGO'
p6027
sg37
S'145.00'
p6028
sg39
S'786.00'
p6029
ssg41
(dp6030
g43
S'26.10'
p6031
sg45
S'19.40'
p6032
sg47
S'27.20'
p6033
sg49
S'25.70'
p6034
sg51
S'31.80'
p6035
sg53
S'76.00'
p6036
sg55
S'56.70'
p6037
sg57
S'25.10'
p6038
sg25
S'CR'
p6039
sg60
g376
sg62
S'80.00'
p6040
sg64
S'24.60'
p6041
sg66
S'164.00'
p6042
sg68
S'21.20'
p6043
sg70
S'0.00'
p6044
sg72
S'27.60'
p6045
sg74
S'35.30'
p6046
sg76
g6009
sssS'CUTRALCO'
p6047
(dp6048
g3
(dp6049
g5
S'6.40'
p6050
sg7
S'0.60'
p6051
sg9
S'-3.90'
p6052
sg11
S'-2.10'
p6053
sg13
S'5.50'
p6054
sg15
S'13.20'
p6055
sg17
S'2361.00'
p6056
sg19
S'61.00'
p6057
sg21
S'69.20'
p6058
sg23
S'1.90'
p6059
sg25
S'NQ'
p6060
sg27
S'612.00'
p6061
sg29
S'11.00'
p6062
sg31
S'0.00'
p6063
sg33
S'39.00'
p6064
sg35
S'CUTRALCO'
p6065
sg37
S'1798.00'
p6066
sg39
S'2997.00'
p6067
ssg41
(dp6068
g43
S'20.50'
p6069
sg45
S'12.90'
p6070
sg47
S'24.40'
p6071
sg49
S'7.50'
p6072
sg51
S'29.00'
p6073
sg53
S'34.00'
p6074
sg55
S'69.20'
p6075
sg57
S'20.40'
p6076
sg25
S'NQ'
p6077
sg60
g61
sg62
S'612.00'
p6078
sg64
S'19.60'
p6079
sg66
S'13.00'
p6080
sg68
S'2.20'
p6081
sg70
S'0.00'
p6082
sg72
S'39.00'
p6083
sg74
S'32.50'
p6084
sg76
g6047
sssS'CHACRAS DE CORIA'
p6085
(dp6086
g3
(dp6087
g5
S'7.00'
p6088
sg7
S'0.90'
p6089
sg9
S'-3.60'
p6090
sg11
S'-0.20'
p6091
sg13
S'6.30'
p6092
sg15
S'14.70'
p6093
sg17
S'2027.00'
p6094
sg19
S'63.00'
p6095
sg21
S'68.90'
p6096
sg23
S'2.50'
p6097
sg25
S'MZ'
p6098
sg27
S'921.00'
p6099
sg29
S'4.00'
p6100
sg31
S'61.00'
p6101
sg33
S'33.00'
p6102
sg35
S'CHACRAS DE CORIA'
p6103
sg37
S'1509.00'
p6104
sg39
S'2626.00'
p6105
ssg41
(dp6106
g43
S'21.60'
p6107
sg45
S'14.50'
p6108
sg47
S'24.60'
p6109
sg49
S'14.50'
p6110
sg51
S'28.40'
p6111
sg53
S'55.00'
p6112
sg55
S'68.90'
p6113
sg57
S'21.00'
p6114
sg25
S'MZ'
p6115
sg60
g61
sg62
S'921.00'
p6116
sg64
S'20.90'
p6117
sg66
S'31.00'
p6118
sg68
S'12.00'
p6119
sg70
S'69.00'
p6120
sg72
S'33.00'
p6121
sg74
S'31.00'
p6122
sg76
g6085
sssS'CNEL. SUAREZ'
p6123
(dp6124
g3
(dp6125
g5
S'7.20'
p6126
sg7
S'2.20'
p6127
sg9
S'-2.30'
p6128
sg11
S'3.40'
p6129
sg13
S'8.30'
p6130
sg15
S'13.30'
p6131
sg17
S'2298.00'
p6132
sg19
S'79.00'
p6133
sg21
S'62.00'
p6134
sg23
S'2.70'
p6135
sg25
S'BAP'
p6136
sg27
S'234.00'
p6137
sg29
S'35.00'
p6138
sg31
S'44.00'
p6139
sg33
S'37.50'
p6140
sg35
S'CNEL. SUAREZ'
p6141
sg37
S'1717.00'
p6142
sg39
S'2942.00'
p6143
ssg41
(dp6144
g43
S'20.20'
p6145
sg45
S'12.90'
p6146
sg47
S'24.20'
p6147
sg49
S'14.10'
p6148
sg51
S'28.40'
p6149
sg53
S'63.00'
p6150
sg55
S'62.00'
p6151
sg57
S'20.10'
p6152
sg25
S'BAP'
p6153
sg60
g108
sg62
S'234.00'
p6154
sg64
S'19.50'
p6155
sg66
S'56.00'
p6156
sg68
S'11.60'
p6157
sg70
S'64.00'
p6158
sg72
S'37.50'
p6159
sg74
S'31.90'
p6160
sg76
g6123
sssS'PIGUE'
p6161
(dp6162
g3
(dp6163
g5
S'7.00'
p6164
sg7
S'1.90'
p6165
sg9
S'-2.60'
p6166
sg11
S'2.40'
p6167
sg13
S'7.70'
p6168
sg15
S'12.70'
p6169
sg17
S'2363.00'
p6170
sg19
S'75.00'
p6171
sg21
S'62.40'
p6172
sg23
S'2.30'
p6173
sg25
S'BAP'
p6174
sg27
S'298.00'
p6175
sg29
S'25.00'
p6176
sg31
S'48.00'
p6177
sg33
S'37.60'
p6178
sg35
S'PIGUE'
p6179
sg37
S'1794.00'
p6180
sg39
S'3043.00'
p6181
ssg41
(dp6182
g43
S'20.00'
p6183
sg45
S'12.90'
p6184
sg47
S'24.00'
p6185
sg49
S'12.60'
p6186
sg51
S'27.80'
p6187
sg53
S'56.00'
p6188
sg55
S'62.40'
p6189
sg57
S'19.90'
p6190
sg25
S'BAP'
p6191
sg60
g108
sg62
S'298.00'
p6192
sg64
S'19.50'
p6193
sg66
S'71.00'
p6194
sg68
S'9.60'
p6195
sg70
S'70.00'
p6196
sg72
S'37.60'
p6197
sg74
S'31.30'
p6198
sg76
g6161
sssS'TRENQUE LAUQUEN'
p6199
(dp6200
g3
(dp6201
g5
S'9.10'
p6202
sg7
S'3.70'
p6203
sg9
S'-0.80'
p6204
sg11
S'3.70'
p6205
sg13
S'8.20'
p6206
sg15
S'15.90'
p6207
sg17
S'1600.00'
p6208
sg19
S'73.00'
p6209
sg21
S'62.70'
p6210
sg23
S'4.60'
p6211
sg25
S'BAP'
p6212
sg27
S'95.00'
p6213
sg29
S'27.00'
p6214
sg31
S'0.00'
p6215
sg33
S'36.00'
p6216
sg35
S'TRENQUE LAUQUEN'
p6217
sg37
S'1165.00'
p6218
sg39
S'2149.00'
p6219
ssg41
(dp6220
g43
S'23.00'
p6221
sg45
S'15.20'
p6222
sg47
S'25.70'
p6223
sg49
S'15.40'
p6224
sg51
S'30.90'
p6225
sg53
S'57.00'
p6226
sg55
S'62.70'
p6227
sg57
S'22.50'
p6228
sg25
S'BAP'
p6229
sg60
g108
sg62
S'95.00'
p6230
sg64
S'21.70'
p6231
sg66
S'78.00'
p6232
sg68
S'12.80'
p6233
sg70
S'0.00'
p6234
sg72
S'36.00'
p6235
sg74
S'34.40'
p6236
sg76
g6199
sssS'GUALEGUAYCHU'
p6237
(dp6238
g3
(dp6239
g5
S'11.50'
p6240
sg7
S'5.70'
p6241
sg9
S'1.20'
p6242
sg11
S'8.70'
p6243
sg13
S'11.80'
p6244
sg15
S'17.10'
p6245
sg17
S'1335.00'
p6246
sg19
S'84.00'
p6247
sg21
S'58.50'
p6248
sg23
S'7.00'
p6249
sg25
S'ER'
p6250
sg27
S'14.00'
p6251
sg29
S'62.00'
p6252
sg31
S'0.00'
p6253
sg33
S'32.90'
p6254
sg35
S'GUALEGUAYCHU'
p6255
sg37
S'903.00'
p6256
sg39
S'1857.00'
p6257
ssg41
(dp6258
g43
S'23.70'
p6259
sg45
S'16.00'
p6260
sg47
S'25.70'
p6261
sg49
S'19.60'
p6262
sg51
S'30.30'
p6263
sg53
S'67.00'
p6264
sg55
S'58.50'
p6265
sg57
S'22.60'
p6266
sg25
S'ER'
p6267
sg60
g376
sg62
S'14.00'
p6268
sg64
S'22.40'
p6269
sg66
S'93.00'
p6270
sg68
S'16.70'
p6271
sg70
S'0.00'
p6272
sg72
S'32.90'
p6273
sg74
S'33.80'
p6274
sg76
g6237
sss.