(dp0
S'Bariloche'
p1
(dp2
S'invierno'
p3
(dp4
S'TMED'
p5
S'2.5'
p6
sS'TMIN'
p7
S'-1.1'
p8
sS'HR'
p9
S'84'
p10
sS'HELRE'
p11
S'41'
p12
sS'TDMN'
p13
S'-5.6'
p14
sS'TVAP'
p15
S'6.3'
p16
sS'TMAX'
p17
S'7.0'
p18
sS'PREC'
p19
S'124'
p20
sS'TDMD'
p21
S'-2'
p22
sS'TROC'
p23
S'0'
p24
sS'GD22'
p25
S'5141'
p26
sS'GD20'
p27
S'4411'
p28
sS'GD18'
p29
S'3681'
p30
ssS'generales'
p31
(dp32
S'LAT'
p33
S'41.2'
p34
sS'ASNM'
p35
S'836'
p36
sS'ZBIO'
p37
S'6'
p38
sS'LONG'
p39
S'71.2'
p40
ssS'verano'
p41
(dp42
g5
S'13.2'
p43
sg7
S'5.6'
p44
sg23
S'5.4'
p45
sg11
S'72\n'
p46
sg9
S'62'
p47
sS'TEC-MD'
p48
S'14.2'
p49
sg15
S'9.1'
p50
sg17
S'20.4'
p51
sg19
S'30'
p52
sg21
S'12.5'
p53
sS'TEC-MX'
p54
S'19.3'
p55
sS'TDMX'
p56
S'23.9'
p57
sssS'CABA'
p58
g2
s.